; Listing generated by Microsoft (R) Optimizing Compiler Version 19.37.32824.0 

include listing.inc

INCLUDELIB MSVCRTD
INCLUDELIB OLDNAMES

PUBLIC	?_pListaModelos@@3PEAXEA			; _pListaModelos
_BSS	SEGMENT
?_pListaModelos@@3PEAXEA DQ 01H DUP (?)			; _pListaModelos
_BSS	ENDS
msvcjmc	SEGMENT
__2972590E_concurrencysal@h DB 01H
__196CC136_sal@h DB 01H
__C395F66A_vadefs@h DB 01H
__D5C25611_vcruntime@h DB 01H
__311F130C_xkeycheck@h DB 01H
__AEBEEEE9_yvals_core@h DB 01H
__05EEB633_limits@h DB 01H
__7CE37BCF_climits DB 01H
__1B0272D9_corecrt@h DB 01H
__D5F74309_vcruntime_new@h DB 01H
__ED298667_vcruntime_new_debug@h DB 01H
__935DC21B_crtdbg@h DB 01H
__B40C025A_crtdefs@h DB 01H
__97CA0262_use_ansi@h DB 01H
__4E4CEF82_yvals@h DB 01H
__BB16330F_corecrt_math@h DB 01H
__3BF2A406_math@h DB 01H
__45DED006_corecrt_malloc@h DB 01H
__13F5961F_stddef@h DB 01H
__FD6DBD68_corecrt_search@h DB 01H
__E2E33A61_corecrt_wstdlib@h DB 01H
__6E5ACABA_stdlib@h DB 01H
__F80C593D_cstdlib DB 01H
__6CC4302B_xtr1common DB 01H
__7178C802_intrin0@inl@h DB 01H
__AD21BB51_intrin0@h DB 01H
__7BD6CF81_cmath DB 01H
__44420885_corecrt_stdio_config@h DB 01H
__AB601D8D_corecrt_wstdio@h DB 01H
__C1EC35D3_stdio@h DB 01H
__FAE305CF_cstdio DB 01H
__61CC25A1_errno@h DB 01H
__4BC88476_vcruntime_string@h DB 01H
__E4C945B4_corecrt_memcpy_s@h DB 01H
__8EAFF484_corecrt_memory@h DB 01H
__6490AEC5_corecrt_wstring@h DB 01H
__E8295E1E_string@h DB 01H
__B49EF1DD_cstring DB 01H
__EF1F6BBA_corecrt_wconio@h DB 01H
__74484FB3_corecrt_wctype@h DB 01H
__3D1D430C_corecrt_wdirect@h DB 01H
__8ECB7138_corecrt_share@h DB 01H
__DB7FEBA6_corecrt_wio@h DB 01H
__9A9F0068_corecrt_wprocess@h DB 01H
__369A9BC3_corecrt_wtime@h DB 01H
__CE789B9D_types@h DB 01H
__9901C817_stat@h DB 01H
__3FCAD62E_wchar@h DB 01H
__6068D39C_cwchar DB 01H
__23A856AA_iosfwd DB 01H
__5DC78390_cstddef DB 01H
__33B42F3D_initializer_list DB 01H
__BB98980C_stdint@h DB 01H
__4552B840_cstdint DB 01H
__7FB6D5C7_type_traits DB 01H
__CF01DCB6_utility DB 01H
__12DC71E1___msvc_iter_core@hpp DB 01H
__D740E0F1_xutility DB 01H
__C6EC57B1_iterator DB 01H
__F7972D0B_share@h DB 01H
__3D410F40___msvc_system_error_abi@hpp DB 01H
__67C27134_cerrno DB 01H
__FA77ED4C_malloc@h DB 01H
__89766DA4_corecrt_terminate@h DB 01H
__27A4BD10_eh@h DB 01H
__E5C78335_vcruntime_exception@h DB 01H
__7C536CCC_exception DB 01H
__B9985323_float@h DB 01H
__89A7CE48_cfloat DB 01H
__98438E05_isa_availability@h DB 01H
__EF41832C_limits DB 01H
__0DB0C2E5_new DB 01H
__765FE01A_xatomic@h DB 01H
__A594BF75_xmemory DB 01H
__DFFCB714___msvc_sanitizer_annotate_container@hpp DB 01H
__D14739E9_xstring DB 01H
__F51D5691_stdexcept DB 01H
__ED2630B9_xcall_once@h DB 01H
__E6D9FA8D_xerrc@h DB 01H
__0A9237D2_time@h DB 01H
__BD655389_ctime DB 01H
__618403B0_xtimec@h DB 01H
__F68435D1_xthreads@h DB 01H
__8474DFEE_atomic DB 01H
__527B2299_system_error DB 01H
__0632977E_vcruntime_typeinfo@h DB 01H
__A79F13E8_typeinfo DB 01H
__53EF8FA2_memory DB 01H
__7FAAD8AD_xfacet DB 01H
__53FF2065___msvc_xlocinfo_types@hpp DB 01H
__1EC467ED_ctype@h DB 01H
__F528E268_cctype DB 01H
__791C33B7_locale@h DB 01H
__6BA085EC_clocale DB 01H
__B816F020_xlocinfo DB 01H
__0E794DD8_xlocale DB 01H
__81F38733_xiosbase DB 01H
__F7BDEE2D_streambuf DB 01H
__90FE2BCF_xlocnum DB 01H
__F57DF8F3_ios DB 01H
__1D69971C_ostream DB 01H
__7EB9A226_istream DB 01H
__B5399AEE_iostream DB 01H
__1F2E278C_TiposForward@h DB 01H
__96A9FD24_Persona@h DB 01H
__229D2084_Modelo@h DB 01H
__7B1C2AE8_Doctor@h DB 01H
__7B62D4C3_MarSalud@h DB 01H
__12060E09_MarSalud@cpp DB 01H
msvcjmc	ENDS
PUBLIC	?__empty_global_delete@@YAXPEAX@Z		; __empty_global_delete
PUBLIC	?__empty_global_delete@@YAXPEAX_K@Z		; __empty_global_delete
PUBLIC	__local_stdio_printf_options
PUBLIC	_vfprintf_l
PUBLIC	printf
PUBLIC	main
PUBLIC	__JustMyCode_Default
PUBLIC	?_OptionsStorage@?1??__local_stdio_printf_options@@9@4_KA ; `__local_stdio_printf_options'::`2'::_OptionsStorage
PUBLIC	??_C@_0L@IKBJHEF@NIF1234567@			; `string'
PUBLIC	??_C@_08IPDJMKIL@Francesc@			; `string'
PUBLIC	??_C@_0M@KPCPAONJ@Casamitjana@			; `string'
PUBLIC	??_C@_0O@BMLAFPLF@C?1Voramar?0?537@		; `string'
PUBLIC	??_C@_05NABAIBHE@08000@				; `string'
PUBLIC	??_C@_09MABIEKFK@Barcelona@			; `string'
PUBLIC	??_C@_0BO@JCLNIAFO@Universitat?5de?5Barcelona?5?$CIUB?$CJ@ ; `string'
PUBLIC	??_C@_09MMDGCKPD@Pediatria@			; `string'
PUBLIC	??_C@_0CE@FHHKDNFG@?6?$CK?$CK?$CK?5Opcion?51?5de?5polimorfismo?3?5@ ; `string'
PUBLIC	??_C@_0BM@NMLLPAGK@Polimorfismo?5por?5herencia?3?6@ ; `string'
PUBLIC	??_C@_0CD@NHHHACIH@?6?$CK?$CKOpcion?52?5de?5polimorfismo?5?3?5?$CK@ ; `string'
PUBLIC	??_C@_0DH@KHMCPONI@Polimorfismo?5por?5sustituci?C?$LDn?5d@ ; `string'
EXTRN	__imp___acrt_iob_func:PROC
EXTRN	__imp___stdio_common_vfprintf:PROC
EXTRN	strcpy:PROC
EXTRN	?PersonaConstructorAdulto@@YAPEAUCPersona@@PEAD00@Z:PROC ; PersonaConstructorAdulto
EXTRN	?_new@@YAPEAXPEAUCPersona@@@Z:PROC		; _new
EXTRN	?_delete@@YAXPEAUCPersona@@@Z:PROC		; _delete
EXTRN	?ListarModelos@@YAXPEAX@Z:PROC			; ListarModelos
EXTRN	?DoctorConstructorCopia@@YAPEAUCDoctor@@PEAUCPersona@@@Z:PROC ; DoctorConstructorCopia
EXTRN	?_new@@YAPEAXPEAUCDoctor@@@Z:PROC		; _new
EXTRN	?_delete@@YAXPEAUCDoctor@@@Z:PROC		; _delete
EXTRN	_RTC_CheckStackVars:PROC
EXTRN	_RTC_InitBase:PROC
EXTRN	_RTC_Shutdown:PROC
EXTRN	__CheckForDebuggerJustMyCode:PROC
EXTRN	__GSHandlerCheck:PROC
EXTRN	__security_check_cookie:PROC
EXTRN	__security_cookie:QWORD
;	COMDAT ?_OptionsStorage@?1??__local_stdio_printf_options@@9@4_KA
_BSS	SEGMENT
?_OptionsStorage@?1??__local_stdio_printf_options@@9@4_KA DQ 01H DUP (?) ; `__local_stdio_printf_options'::`2'::_OptionsStorage
_BSS	ENDS
;	COMDAT pdata
pdata	SEGMENT
$pdata$?__empty_global_delete@@YAXPEAX@Z DD imagerel $LN3
	DD	imagerel $LN3+41
	DD	imagerel $unwind$?__empty_global_delete@@YAXPEAX@Z
pdata	ENDS
;	COMDAT pdata
pdata	SEGMENT
$pdata$?__empty_global_delete@@YAXPEAX_K@Z DD imagerel $LN3
	DD	imagerel $LN3+46
	DD	imagerel $unwind$?__empty_global_delete@@YAXPEAX_K@Z
pdata	ENDS
;	COMDAT pdata
pdata	SEGMENT
$pdata$__local_stdio_printf_options DD imagerel $LN3
	DD	imagerel $LN3+44
	DD	imagerel $unwind$__local_stdio_printf_options
pdata	ENDS
;	COMDAT pdata
pdata	SEGMENT
$pdata$_vfprintf_l DD imagerel $LN3
	DD	imagerel $LN3+103
	DD	imagerel $unwind$_vfprintf_l
pdata	ENDS
;	COMDAT pdata
pdata	SEGMENT
$pdata$printf DD imagerel $LN3
	DD	imagerel $LN3+191
	DD	imagerel $unwind$printf
pdata	ENDS
;	COMDAT pdata
pdata	SEGMENT
$pdata$main DD	imagerel $LN7
	DD	imagerel $LN7+695
	DD	imagerel $unwind$main
pdata	ENDS
;	COMDAT rtc$TMZ
rtc$TMZ	SEGMENT
_RTC_Shutdown.rtc$TMZ DQ FLAT:_RTC_Shutdown
rtc$TMZ	ENDS
;	COMDAT rtc$IMZ
rtc$IMZ	SEGMENT
_RTC_InitBase.rtc$IMZ DQ FLAT:_RTC_InitBase
rtc$IMZ	ENDS
;	COMDAT ??_C@_0DH@KHMCPONI@Polimorfismo?5por?5sustituci?C?$LDn?5d@
CONST	SEGMENT
??_C@_0DH@KHMCPONI@Polimorfismo?5por?5sustituci?C?$LDn?5d@ DB 'Polimorfis'
	DB	'mo por sustituci', 0c3H, 0b3H, 'n de punteros a funci', 0c3H, 0b3H
	DB	'n:', 0aH, 00H				; `string'
CONST	ENDS
;	COMDAT ??_C@_0CD@NHHHACIH@?6?$CK?$CKOpcion?52?5de?5polimorfismo?5?3?5?$CK@
CONST	SEGMENT
??_C@_0CD@NHHHACIH@?6?$CK?$CKOpcion?52?5de?5polimorfismo?5?3?5?$CK@ DB 0aH
	DB	'**Opcion 2 de polimorfismo : ***', 0aH, 00H	; `string'
CONST	ENDS
;	COMDAT ??_C@_0BM@NMLLPAGK@Polimorfismo?5por?5herencia?3?6@
CONST	SEGMENT
??_C@_0BM@NMLLPAGK@Polimorfismo?5por?5herencia?3?6@ DB 'Polimorfismo por '
	DB	'herencia:', 0aH, 00H			; `string'
CONST	ENDS
;	COMDAT ??_C@_0CE@FHHKDNFG@?6?$CK?$CK?$CK?5Opcion?51?5de?5polimorfismo?3?5@
CONST	SEGMENT
??_C@_0CE@FHHKDNFG@?6?$CK?$CK?$CK?5Opcion?51?5de?5polimorfismo?3?5@ DB 0aH
	DB	'*** Opcion 1 de polimorfismo: ***', 0aH, 00H ; `string'
CONST	ENDS
;	COMDAT ??_C@_09MMDGCKPD@Pediatria@
CONST	SEGMENT
??_C@_09MMDGCKPD@Pediatria@ DB 'Pediatria', 00H		; `string'
CONST	ENDS
;	COMDAT ??_C@_0BO@JCLNIAFO@Universitat?5de?5Barcelona?5?$CIUB?$CJ@
CONST	SEGMENT
??_C@_0BO@JCLNIAFO@Universitat?5de?5Barcelona?5?$CIUB?$CJ@ DB 'Universita'
	DB	't de Barcelona (UB)', 00H			; `string'
CONST	ENDS
;	COMDAT ??_C@_09MABIEKFK@Barcelona@
CONST	SEGMENT
??_C@_09MABIEKFK@Barcelona@ DB 'Barcelona', 00H		; `string'
CONST	ENDS
;	COMDAT ??_C@_05NABAIBHE@08000@
CONST	SEGMENT
??_C@_05NABAIBHE@08000@ DB '08000', 00H			; `string'
CONST	ENDS
;	COMDAT ??_C@_0O@BMLAFPLF@C?1Voramar?0?537@
CONST	SEGMENT
??_C@_0O@BMLAFPLF@C?1Voramar?0?537@ DB 'C/Voramar, 37', 00H ; `string'
CONST	ENDS
;	COMDAT ??_C@_0M@KPCPAONJ@Casamitjana@
CONST	SEGMENT
??_C@_0M@KPCPAONJ@Casamitjana@ DB 'Casamitjana', 00H	; `string'
CONST	ENDS
;	COMDAT ??_C@_08IPDJMKIL@Francesc@
CONST	SEGMENT
??_C@_08IPDJMKIL@Francesc@ DB 'Francesc', 00H		; `string'
CONST	ENDS
;	COMDAT ??_C@_0L@IKBJHEF@NIF1234567@
CONST	SEGMENT
??_C@_0L@IKBJHEF@NIF1234567@ DB 'NIF1234567', 00H	; `string'
CONST	ENDS
;	COMDAT voltbl
voltbl	SEGMENT
_volmd	DW	02aH
	DW	029eH
voltbl	ENDS
;	COMDAT xdata
xdata	SEGMENT
$unwind$main DD	025053119H
	DD	010a230fH
	DD	070030055H
	DD	05002H
	DD	imagerel __GSHandlerCheck
	DD	0298H
xdata	ENDS
;	COMDAT CONST
CONST	SEGMENT
main$rtcName$0 DB 073H
	DB	07aH
	DB	04eH
	DB	049H
	DB	046H
	DB	00H
	ORG $+2
main$rtcName$1 DB 073H
	DB	07aH
	DB	04eH
	DB	06fH
	DB	06dH
	DB	062H
	DB	072H
	DB	065H
	DB	00H
	ORG $+7
main$rtcName$2 DB 073H
	DB	07aH
	DB	041H
	DB	070H
	DB	065H
	DB	06cH
	DB	06cH
	DB	069H
	DB	064H
	DB	06fH
	DB	073H
	DB	00H
	ORG $+12
main$rtcVarDesc DD 0e0H
	DD	064H
	DQ	FLAT:main$rtcName$2
	DD	078H
	DD	03cH
	DQ	FLAT:main$rtcName$1
	DD	028H
	DD	032H
	DQ	FLAT:main$rtcName$0
	ORG $+144
main$rtcFrameData DD 03H
	DD	00H
	DQ	FLAT:main$rtcVarDesc
CONST	ENDS
;	COMDAT voltbl
voltbl	SEGMENT
_volmd	DB	045H
	DB	0a6H
voltbl	ENDS
;	COMDAT xdata
xdata	SEGMENT
$unwind$printf DD 025054c19H
	DD	011d2322H
	DD	070160029H
	DD	05015H
	DD	imagerel __GSHandlerCheck
	DD	0138H
xdata	ENDS
;	COMDAT CONST
CONST	SEGMENT
printf$rtcName$0 DB 05fH
	DB	041H
	DB	072H
	DB	067H
	DB	04cH
	DB	069H
	DB	073H
	DB	074H
	DB	00H
	ORG $+7
printf$rtcVarDesc DD 048H
	DD	08H
	DQ	FLAT:printf$rtcName$0
	ORG $+48
printf$rtcFrameData DD 01H
	DD	00H
	DQ	FLAT:printf$rtcVarDesc
CONST	ENDS
;	COMDAT xdata
xdata	SEGMENT
$unwind$_vfprintf_l DD 035052201H
	DD	011d3322H
	DD	07016001fH
	DD	05015H
xdata	ENDS
;	COMDAT xdata
xdata	SEGMENT
$unwind$__local_stdio_printf_options DD 025050f01H
	DD	010a230fH
	DD	07003001dH
	DD	05002H
xdata	ENDS
;	COMDAT xdata
xdata	SEGMENT
$unwind$?__empty_global_delete@@YAXPEAX_K@Z DD 025051801H
	DD	01132318H
	DD	0700c001dH
	DD	0500bH
xdata	ENDS
;	COMDAT xdata
xdata	SEGMENT
$unwind$?__empty_global_delete@@YAXPEAX@Z DD 025051301H
	DD	010e2313H
	DD	07007001dH
	DD	05006H
xdata	ENDS
; Function compile flags: /Odt
;	COMDAT __JustMyCode_Default
_TEXT	SEGMENT
__JustMyCode_Default PROC				; COMDAT
	ret	0
__JustMyCode_Default ENDP
_TEXT	ENDS
; Function compile flags: /Odtp /RTCsu /ZI
; File D:\Develop\Marcombo\MarSalud\MarSalud\MarSalud.cpp
;	COMDAT main
_TEXT	SEGMENT
szNIF$ = 8
szNombre$ = 88
szApellidos$ = 192
nOpcionPolimorfismo$ = 324
pPersonaDinamica$ = 360
pDoctorDinamico$ = 392
nTipoFicha$6 = 420
__$ArrayPad$ = 632
main	PROC						; COMDAT

; 13   : {

$LN7:
	push	rbp
	push	rdi
	sub	rsp, 680				; 000002a8H
	lea	rbp, QWORD PTR [rsp+32]
	lea	rdi, QWORD PTR [rsp+32]
	mov	ecx, 114				; 00000072H
	mov	eax, -858993460				; ccccccccH
	rep stosd
	mov	rax, QWORD PTR __security_cookie
	xor	rax, rbp
	mov	QWORD PTR __$ArrayPad$[rbp], rax
	lea	rcx, OFFSET FLAT:__12060E09_MarSalud@cpp
	call	__CheckForDebuggerJustMyCode

; 14   :     char szNIF[50];
; 15   :     char szNombre[60];
; 16   :     char szApellidos[100];
; 17   :     int nOpcionPolimorfismo = 0;

	mov	DWORD PTR nOpcionPolimorfismo$[rbp], 0

; 18   : 
; 19   :     strcpy(szNIF, "NIF1234567");

	lea	rdx, OFFSET FLAT:??_C@_0L@IKBJHEF@NIF1234567@
	lea	rcx, QWORD PTR szNIF$[rbp]
	call	strcpy

; 20   :     strcpy(szNombre, "Francesc");

	lea	rdx, OFFSET FLAT:??_C@_08IPDJMKIL@Francesc@
	lea	rcx, QWORD PTR szNombre$[rbp]
	call	strcpy

; 21   :     strcpy(szApellidos, "Casamitjana");

	lea	rdx, OFFSET FLAT:??_C@_0M@KPCPAONJ@Casamitjana@
	lea	rcx, QWORD PTR szApellidos$[rbp]
	call	strcpy

; 22   : 
; 23   :     CPersonaPtr pPersonaDinamica = NULL;

	mov	QWORD PTR pPersonaDinamica$[rbp], 0

; 24   : 
; 25   :     pPersonaDinamica = (CPersonaPtr)_new(PersonaConstructorAdulto(szNIF, szNombre, szApellidos));

	lea	r8, QWORD PTR szApellidos$[rbp]
	lea	rdx, QWORD PTR szNombre$[rbp]
	lea	rcx, QWORD PTR szNIF$[rbp]
	call	?PersonaConstructorAdulto@@YAPEAUCPersona@@PEAD00@Z ; PersonaConstructorAdulto
	mov	rcx, rax
	call	?_new@@YAPEAXPEAUCPersona@@@Z		; _new
	mov	QWORD PTR pPersonaDinamica$[rbp], rax

; 26   :     if (pPersonaDinamica)

	cmp	QWORD PTR pPersonaDinamica$[rbp], 0
	je	SHORT $LN2@main

; 27   :     {
; 28   :         strcpy(pPersonaDinamica->m_szDireccion, "C/Voramar, 37");

	mov	rax, QWORD PTR pPersonaDinamica$[rbp]
	add	rax, 376				; 00000178H
	lea	rdx, OFFSET FLAT:??_C@_0O@BMLAFPLF@C?1Voramar?0?537@
	mov	rcx, rax
	call	strcpy

; 29   :         strcpy(pPersonaDinamica->m_szCodPostal, "08000");

	mov	rax, QWORD PTR pPersonaDinamica$[rbp]
	add	rax, 576				; 00000240H
	lea	rdx, OFFSET FLAT:??_C@_05NABAIBHE@08000@
	mov	rcx, rax
	call	strcpy

; 30   :         strcpy(pPersonaDinamica->m_szPoblacion, "Barcelona");

	mov	rax, QWORD PTR pPersonaDinamica$[rbp]
	add	rax, 586				; 0000024aH
	lea	rdx, OFFSET FLAT:??_C@_09MABIEKFK@Barcelona@
	mov	rcx, rax
	call	strcpy

; 31   : 
; 32   :         //Imprimir la ficha de la persona:
; 33   :         (pPersonaDinamica->m_lpfnImprimirFicha)(pPersonaDinamica->m_this);

	mov	rax, QWORD PTR pPersonaDinamica$[rbp]
	mov	rcx, QWORD PTR [rax]
	mov	rax, QWORD PTR pPersonaDinamica$[rbp]
	call	QWORD PTR [rax+984]
$LN2@main:

; 34   :     }
; 35   :     ListarModelos(_pListaModelos);

	mov	rcx, QWORD PTR ?_pListaModelos@@3PEAXEA	; _pListaModelos
	call	?ListarModelos@@YAXPEAX@Z		; ListarModelos

; 36   : 
; 37   :     CDoctor* pDoctorDinamico = NULL;

	mov	QWORD PTR pDoctorDinamico$[rbp], 0

; 38   : 
; 39   :     pDoctorDinamico = (CDoctorPtr)_new(DoctorConstructorCopia(pPersonaDinamica));

	mov	rcx, QWORD PTR pPersonaDinamica$[rbp]
	call	?DoctorConstructorCopia@@YAPEAUCDoctor@@PEAUCPersona@@@Z ; DoctorConstructorCopia
	mov	rcx, rax
	call	?_new@@YAPEAXPEAUCDoctor@@@Z		; _new
	mov	QWORD PTR pDoctorDinamico$[rbp], rax

; 40   :     if (pDoctorDinamico)

	cmp	QWORD PTR pDoctorDinamico$[rbp], 0
	je	$LN3@main

; 41   :     {
; 42   :         pDoctorDinamico->m_nNumColegiado = 77777777;

	mov	rax, QWORD PTR pDoctorDinamico$[rbp]
	mov	DWORD PTR [rax+24], 77777777		; 04a2cb71H

; 43   :         strcpy(pDoctorDinamico->m_szUniversidad, "Universitat de Barcelona (UB)");

	mov	rax, QWORD PTR pDoctorDinamico$[rbp]
	add	rax, 28
	lea	rdx, OFFSET FLAT:??_C@_0BO@JCLNIAFO@Universitat?5de?5Barcelona?5?$CIUB?$CJ@
	mov	rcx, rax
	call	strcpy

; 44   :         strcpy(pDoctorDinamico->m_szEspecialidad, "Pediatria");

	mov	rax, QWORD PTR pDoctorDinamico$[rbp]
	add	rax, 128				; 00000080H
	lea	rdx, OFFSET FLAT:??_C@_09MMDGCKPD@Pediatria@
	mov	rcx, rax
	call	strcpy

; 45   : 
; 46   :         //Imprimir la ficha con 2 opciones posibles de polimorfismo:
; 47   :         nOpcionPolimorfismo = 1;

	mov	DWORD PTR nOpcionPolimorfismo$[rbp], 1

; 48   :         if (nOpcionPolimorfismo == 1)

	cmp	DWORD PTR nOpcionPolimorfismo$[rbp], 1
	jne	SHORT $LN4@main

; 49   :         {
; 50   :             // Opción 1 de polimorfismo:
; 51   :             // Polimorfismo por llamada a la función primitiva de CPersona 
; 52   :             // perteneciente al objeto derivado CDoctor:
; 53   :             // Con la opcion nTipoFicha = 0, imprime datos del doctor y al final datos de la persona.
; 54   :             // Con la opción nTipoFicha = 1, sólo imprime lo datos de persona.
; 55   :             printf("\n*** Opcion 1 de polimorfismo: ***\n");

	lea	rcx, OFFSET FLAT:??_C@_0CE@FHHKDNFG@?6?$CK?$CK?$CK?5Opcion?51?5de?5polimorfismo?3?5@
	call	printf

; 56   :             printf("Polimorfismo por herencia:\n");

	lea	rcx, OFFSET FLAT:??_C@_0BM@NMLLPAGK@Polimorfismo?5por?5herencia?3?6@
	call	printf

; 57   :             int nTipoFicha = 0;

	mov	DWORD PTR nTipoFicha$6[rbp], 0

; 58   :             (pDoctorDinamico->m_lpfnImprimirFicha)(pDoctorDinamico->m_this, nTipoFicha);

	mov	edx, DWORD PTR nTipoFicha$6[rbp]
	mov	rax, QWORD PTR pDoctorDinamico$[rbp]
	mov	rcx, QWORD PTR [rax]
	mov	rax, QWORD PTR pDoctorDinamico$[rbp]
	call	QWORD PTR [rax+248]
$LN4@main:

; 59   :         }
; 60   : 
; 61   :         if (nOpcionPolimorfismo == 2)

	cmp	DWORD PTR nOpcionPolimorfismo$[rbp], 2
	jne	SHORT $LN5@main

; 62   :         {
; 63   :             //Opción 2 de polimorfismo:
; 64   :             //Sustituir  valor del puntero a función de ImprimirFicha de CDoctor
; 65   :             //por el valor del puntero a función de ImprimirFicha de CPersona:
; 66   :             printf("\n**Opcion 2 de polimorfismo : ***\n");

	lea	rcx, OFFSET FLAT:??_C@_0CD@NHHHACIH@?6?$CK?$CKOpcion?52?5de?5polimorfismo?5?3?5?$CK@
	call	printf

; 67   :             printf("Polimorfismo por sustitución de punteros a función:\n");

	lea	rcx, OFFSET FLAT:??_C@_0DH@KHMCPONI@Polimorfismo?5por?5sustituci?C?$LDn?5d@
	call	printf

; 68   :             pDoctorDinamico->m_lpfnImprimirFicha = (CDoctor::LPFNIMPRIMIRFICHA)pDoctorDinamico->m_pPersona->m_lpfnImprimirFicha;

	mov	rax, QWORD PTR pDoctorDinamico$[rbp]
	mov	rax, QWORD PTR [rax+8]
	mov	rcx, QWORD PTR pDoctorDinamico$[rbp]
	mov	rax, QWORD PTR [rax+984]
	mov	QWORD PTR [rcx+248], rax

; 69   :             ((CPersona::LPFNIMPRIMIRFICHA)(pDoctorDinamico->m_lpfnImprimirFicha))(pDoctorDinamico->m_pPersona);

	mov	rax, QWORD PTR pDoctorDinamico$[rbp]
	mov	rcx, QWORD PTR [rax+8]
	mov	rax, QWORD PTR pDoctorDinamico$[rbp]
	call	QWORD PTR [rax+248]
$LN5@main:
$LN3@main:

; 70   :         }
; 71   :     }
; 72   :     ListarModelos(_pListaModelos);

	mov	rcx, QWORD PTR ?_pListaModelos@@3PEAXEA	; _pListaModelos
	call	?ListarModelos@@YAXPEAX@Z		; ListarModelos

; 73   : 
; 74   :     _delete(pPersonaDinamica);

	mov	rcx, QWORD PTR pPersonaDinamica$[rbp]
	call	?_delete@@YAXPEAUCPersona@@@Z		; _delete

; 75   :     ListarModelos(_pListaModelos);

	mov	rcx, QWORD PTR ?_pListaModelos@@3PEAXEA	; _pListaModelos
	call	?ListarModelos@@YAXPEAX@Z		; ListarModelos

; 76   : 
; 77   :     _delete(pDoctorDinamico);

	mov	rcx, QWORD PTR pDoctorDinamico$[rbp]
	call	?_delete@@YAXPEAUCDoctor@@@Z		; _delete

; 78   :     ListarModelos(_pListaModelos);

	mov	rcx, QWORD PTR ?_pListaModelos@@3PEAXEA	; _pListaModelos
	call	?ListarModelos@@YAXPEAX@Z		; ListarModelos

; 79   : }

	xor	eax, eax
	mov	edi, eax
	lea	rcx, QWORD PTR [rbp-32]
	lea	rdx, OFFSET FLAT:main$rtcFrameData
	call	_RTC_CheckStackVars
	mov	eax, edi
	mov	rcx, QWORD PTR __$ArrayPad$[rbp]
	xor	rcx, rbp
	call	__security_check_cookie
	lea	rsp, QWORD PTR [rbp+648]
	pop	rdi
	pop	rbp
	ret	0
main	ENDP
_TEXT	ENDS
; Function compile flags: /Odtp /RTCsu /ZI
; File C:\Program Files (x86)\Windows Kits\10\Include\10.0.22621.0\ucrt\stdio.h
;	COMDAT printf
_TEXT	SEGMENT
_Result$ = 4
_ArgList$ = 40
__$ArrayPad$ = 280
_Format$ = 320
printf	PROC						; COMDAT

; 956  :     {

$LN3:
	mov	QWORD PTR [rsp+8], rcx
	mov	QWORD PTR [rsp+16], rdx
	mov	QWORD PTR [rsp+24], r8
	mov	QWORD PTR [rsp+32], r9
	push	rbp
	push	rdi
	sub	rsp, 328				; 00000148H
	lea	rbp, QWORD PTR [rsp+32]
	lea	rdi, QWORD PTR [rsp+32]
	mov	ecx, 26
	mov	eax, -858993460				; ccccccccH
	rep stosd
	mov	rcx, QWORD PTR [rsp+360]
	mov	rax, QWORD PTR __security_cookie
	xor	rax, rbp
	mov	QWORD PTR __$ArrayPad$[rbp], rax
	lea	rcx, OFFSET FLAT:__C1EC35D3_stdio@h
	call	__CheckForDebuggerJustMyCode

; 957  :         int _Result;
; 958  :         va_list _ArgList;
; 959  :         __crt_va_start(_ArgList, _Format);

	lea	rax, QWORD PTR _Format$[rbp+8]
	mov	QWORD PTR _ArgList$[rbp], rax

; 960  :         _Result = _vfprintf_l(stdout, _Format, NULL, _ArgList);

	mov	ecx, 1
	call	QWORD PTR __imp___acrt_iob_func
	mov	r9, QWORD PTR _ArgList$[rbp]
	xor	r8d, r8d
	mov	rdx, QWORD PTR _Format$[rbp]
	mov	rcx, rax
	call	_vfprintf_l
	mov	DWORD PTR _Result$[rbp], eax

; 961  :         __crt_va_end(_ArgList);

	mov	QWORD PTR _ArgList$[rbp], 0

; 962  :         return _Result;

	mov	eax, DWORD PTR _Result$[rbp]

; 963  :     }

	mov	edi, eax
	lea	rcx, QWORD PTR [rbp-32]
	lea	rdx, OFFSET FLAT:printf$rtcFrameData
	call	_RTC_CheckStackVars
	mov	eax, edi
	mov	rcx, QWORD PTR __$ArrayPad$[rbp]
	xor	rcx, rbp
	call	__security_check_cookie
	lea	rsp, QWORD PTR [rbp+296]
	pop	rdi
	pop	rbp
	ret	0
printf	ENDP
_TEXT	ENDS
; Function compile flags: /Odtp /RTCsu /ZI
; File C:\Program Files (x86)\Windows Kits\10\Include\10.0.22621.0\ucrt\stdio.h
;	COMDAT _vfprintf_l
_TEXT	SEGMENT
_Stream$ = 224
_Format$ = 232
_Locale$ = 240
_ArgList$ = 248
_vfprintf_l PROC					; COMDAT

; 644  :     {

$LN3:
	mov	QWORD PTR [rsp+32], r9
	mov	QWORD PTR [rsp+24], r8
	mov	QWORD PTR [rsp+16], rdx
	mov	QWORD PTR [rsp+8], rcx
	push	rbp
	push	rdi
	sub	rsp, 248				; 000000f8H
	lea	rbp, QWORD PTR [rsp+48]
	lea	rcx, OFFSET FLAT:__C1EC35D3_stdio@h
	call	__CheckForDebuggerJustMyCode

; 645  :         return __stdio_common_vfprintf(_CRT_INTERNAL_LOCAL_PRINTF_OPTIONS, _Stream, _Format, _Locale, _ArgList);

	call	__local_stdio_printf_options
	mov	rcx, QWORD PTR _ArgList$[rbp]
	mov	QWORD PTR [rsp+32], rcx
	mov	r9, QWORD PTR _Locale$[rbp]
	mov	r8, QWORD PTR _Format$[rbp]
	mov	rdx, QWORD PTR _Stream$[rbp]
	mov	rcx, QWORD PTR [rax]
	call	QWORD PTR __imp___stdio_common_vfprintf

; 646  :     }

	lea	rsp, QWORD PTR [rbp+200]
	pop	rdi
	pop	rbp
	ret	0
_vfprintf_l ENDP
_TEXT	ENDS
; Function compile flags: /Odtp /RTCsu /ZI
; File C:\Program Files (x86)\Windows Kits\10\Include\10.0.22621.0\ucrt\corecrt_stdio_config.h
;	COMDAT __local_stdio_printf_options
_TEXT	SEGMENT
__local_stdio_printf_options PROC			; COMDAT

; 90   :     {

$LN3:
	push	rbp
	push	rdi
	sub	rsp, 232				; 000000e8H
	lea	rbp, QWORD PTR [rsp+32]
	lea	rcx, OFFSET FLAT:__44420885_corecrt_stdio_config@h
	call	__CheckForDebuggerJustMyCode

; 91   :         static unsigned __int64 _OptionsStorage;
; 92   :         return &_OptionsStorage;

	lea	rax, OFFSET FLAT:?_OptionsStorage@?1??__local_stdio_printf_options@@9@4_KA ; `__local_stdio_printf_options'::`2'::_OptionsStorage

; 93   :     }

	lea	rsp, QWORD PTR [rbp+200]
	pop	rdi
	pop	rbp
	ret	0
__local_stdio_printf_options ENDP
_TEXT	ENDS
; Function compile flags: /Odtp /RTCsu /ZI
; File D:\Develop\Marcombo\MarSalud\MarSalud\MarSalud.cpp
;	COMDAT ?__empty_global_delete@@YAXPEAX_K@Z
_TEXT	SEGMENT
__formal$ = 224
__formal$ = 232
?__empty_global_delete@@YAXPEAX_K@Z PROC		; __empty_global_delete, COMDAT

$LN3:
	mov	QWORD PTR [rsp+16], rdx
	mov	QWORD PTR [rsp+8], rcx
	push	rbp
	push	rdi
	sub	rsp, 232				; 000000e8H
	lea	rbp, QWORD PTR [rsp+32]
	lea	rcx, OFFSET FLAT:__12060E09_MarSalud@cpp
	call	__CheckForDebuggerJustMyCode
	lea	rsp, QWORD PTR [rbp+200]
	pop	rdi
	pop	rbp
	ret	0
?__empty_global_delete@@YAXPEAX_K@Z ENDP		; __empty_global_delete
_TEXT	ENDS
; Function compile flags: /Odtp /RTCsu /ZI
; File D:\Develop\Marcombo\MarSalud\MarSalud\MarSalud.cpp
;	COMDAT ?__empty_global_delete@@YAXPEAX@Z
_TEXT	SEGMENT
__formal$ = 224
?__empty_global_delete@@YAXPEAX@Z PROC			; __empty_global_delete, COMDAT

$LN3:
	mov	QWORD PTR [rsp+8], rcx
	push	rbp
	push	rdi
	sub	rsp, 232				; 000000e8H
	lea	rbp, QWORD PTR [rsp+32]
	lea	rcx, OFFSET FLAT:__12060E09_MarSalud@cpp
	call	__CheckForDebuggerJustMyCode
	lea	rsp, QWORD PTR [rbp+200]
	pop	rdi
	pop	rbp
	ret	0
?__empty_global_delete@@YAXPEAX@Z ENDP			; __empty_global_delete
_TEXT	ENDS
END
