; Listing generated by Microsoft (R) Optimizing Compiler Version 19.37.32824.0 

include listing.inc

INCLUDELIB MSVCRTD
INCLUDELIB OLDNAMES

msvcjmc	SEGMENT
__2972590E_concurrencysal@h DB 01H
__196CC136_sal@h DB 01H
__C395F66A_vadefs@h DB 01H
__D5C25611_vcruntime@h DB 01H
__311F130C_xkeycheck@h DB 01H
__AEBEEEE9_yvals_core@h DB 01H
__05EEB633_limits@h DB 01H
__7CE37BCF_climits DB 01H
__1B0272D9_corecrt@h DB 01H
__D5F74309_vcruntime_new@h DB 01H
__ED298667_vcruntime_new_debug@h DB 01H
__935DC21B_crtdbg@h DB 01H
__B40C025A_crtdefs@h DB 01H
__97CA0262_use_ansi@h DB 01H
__4E4CEF82_yvals@h DB 01H
__BB16330F_corecrt_math@h DB 01H
__3BF2A406_math@h DB 01H
__45DED006_corecrt_malloc@h DB 01H
__13F5961F_stddef@h DB 01H
__FD6DBD68_corecrt_search@h DB 01H
__E2E33A61_corecrt_wstdlib@h DB 01H
__6E5ACABA_stdlib@h DB 01H
__F80C593D_cstdlib DB 01H
__6CC4302B_xtr1common DB 01H
__7178C802_intrin0@inl@h DB 01H
__AD21BB51_intrin0@h DB 01H
__7BD6CF81_cmath DB 01H
__44420885_corecrt_stdio_config@h DB 01H
__AB601D8D_corecrt_wstdio@h DB 01H
__C1EC35D3_stdio@h DB 01H
__FAE305CF_cstdio DB 01H
__61CC25A1_errno@h DB 01H
__4BC88476_vcruntime_string@h DB 01H
__E4C945B4_corecrt_memcpy_s@h DB 01H
__8EAFF484_corecrt_memory@h DB 01H
__6490AEC5_corecrt_wstring@h DB 01H
__E8295E1E_string@h DB 01H
__B49EF1DD_cstring DB 01H
__EF1F6BBA_corecrt_wconio@h DB 01H
__74484FB3_corecrt_wctype@h DB 01H
__3D1D430C_corecrt_wdirect@h DB 01H
__8ECB7138_corecrt_share@h DB 01H
__DB7FEBA6_corecrt_wio@h DB 01H
__9A9F0068_corecrt_wprocess@h DB 01H
__369A9BC3_corecrt_wtime@h DB 01H
__CE789B9D_types@h DB 01H
__9901C817_stat@h DB 01H
__3FCAD62E_wchar@h DB 01H
__6068D39C_cwchar DB 01H
__23A856AA_iosfwd DB 01H
__5DC78390_cstddef DB 01H
__33B42F3D_initializer_list DB 01H
__BB98980C_stdint@h DB 01H
__4552B840_cstdint DB 01H
__7FB6D5C7_type_traits DB 01H
__CF01DCB6_utility DB 01H
__12DC71E1___msvc_iter_core@hpp DB 01H
__D740E0F1_xutility DB 01H
__C6EC57B1_iterator DB 01H
__F7972D0B_share@h DB 01H
__3D410F40___msvc_system_error_abi@hpp DB 01H
__67C27134_cerrno DB 01H
__FA77ED4C_malloc@h DB 01H
__89766DA4_corecrt_terminate@h DB 01H
__27A4BD10_eh@h DB 01H
__E5C78335_vcruntime_exception@h DB 01H
__7C536CCC_exception DB 01H
__B9985323_float@h DB 01H
__89A7CE48_cfloat DB 01H
__98438E05_isa_availability@h DB 01H
__EF41832C_limits DB 01H
__0DB0C2E5_new DB 01H
__765FE01A_xatomic@h DB 01H
__A594BF75_xmemory DB 01H
__DFFCB714___msvc_sanitizer_annotate_container@hpp DB 01H
__D14739E9_xstring DB 01H
__F51D5691_stdexcept DB 01H
__ED2630B9_xcall_once@h DB 01H
__E6D9FA8D_xerrc@h DB 01H
__0A9237D2_time@h DB 01H
__BD655389_ctime DB 01H
__618403B0_xtimec@h DB 01H
__F68435D1_xthreads@h DB 01H
__8474DFEE_atomic DB 01H
__527B2299_system_error DB 01H
__0632977E_vcruntime_typeinfo@h DB 01H
__A79F13E8_typeinfo DB 01H
__53EF8FA2_memory DB 01H
__7FAAD8AD_xfacet DB 01H
__53FF2065___msvc_xlocinfo_types@hpp DB 01H
__1EC467ED_ctype@h DB 01H
__F528E268_cctype DB 01H
__791C33B7_locale@h DB 01H
__6BA085EC_clocale DB 01H
__B816F020_xlocinfo DB 01H
__0E794DD8_xlocale DB 01H
__81F38733_xiosbase DB 01H
__F7BDEE2D_streambuf DB 01H
__90FE2BCF_xlocnum DB 01H
__F57DF8F3_ios DB 01H
__1D69971C_ostream DB 01H
__7EB9A226_istream DB 01H
__B5399AEE_iostream DB 01H
__12060E09_MarSalud@cpp DB 01H
msvcjmc	ENDS
PUBLIC	?__empty_global_delete@@YAXPEAX@Z		; __empty_global_delete
PUBLIC	?__empty_global_delete@@YAXPEAX_K@Z		; __empty_global_delete
PUBLIC	?PersonaDefaultConstructor@@YAPEAUCPersona@@XZ	; PersonaDefaultConstructor
PUBLIC	?PersonaConstructorBebe@@YAPEAUCPersona@@PEAD0@Z ; PersonaConstructorBebe
PUBLIC	?PersonaConstructorAdulto@@YAPEAUCPersona@@PEAD00@Z ; PersonaConstructorAdulto
PUBLIC	?PersonaDestructor@@YAXPEAUCPersona@@@Z		; PersonaDestructor
PUBLIC	?CopiarPunterosFuncion@@YAXPEAUCModeloPersona@@PEAUCPersona@@@Z ; CopiarPunterosFuncion
PUBLIC	?_new@@YAPEAXPEAX@Z				; _new
PUBLIC	?_delete@@YAXPEAUCPersona@@@Z			; _delete
PUBLIC	main
PUBLIC	__JustMyCode_Default
PUBLIC	??_C@_08NHDDCJFL@CPersona@			; `string'
PUBLIC	??_C@_0L@IKBJHEF@NIF1234567@			; `string'
PUBLIC	??_C@_08IPDJMKIL@Francesc@			; `string'
PUBLIC	??_C@_0M@KPCPAONJ@Casamitjana@			; `string'
PUBLIC	??_C@_0O@BMLAFPLF@C?1Voramar?0?537@		; `string'
PUBLIC	??_C@_05NABAIBHE@08000@				; `string'
PUBLIC	??_C@_09MABIEKFK@Barcelona@			; `string'
EXTRN	__imp_free:PROC
EXTRN	__imp_malloc:PROC
EXTRN	memset:PROC
EXTRN	strcpy:PROC
EXTRN	_RTC_CheckStackVars:PROC
EXTRN	_RTC_InitBase:PROC
EXTRN	_RTC_Shutdown:PROC
EXTRN	__CheckForDebuggerJustMyCode:PROC
EXTRN	__GSHandlerCheck:PROC
EXTRN	__security_check_cookie:PROC
EXTRN	__security_cookie:QWORD
_BSS	SEGMENT
?_pModelo@@3PEAUCModeloPersona@@EA DQ 01H DUP (?)	; _pModelo
_BSS	ENDS
;	COMDAT pdata
pdata	SEGMENT
$pdata$?__empty_global_delete@@YAXPEAX@Z DD imagerel $LN3
	DD	imagerel $LN3+41
	DD	imagerel $unwind$?__empty_global_delete@@YAXPEAX@Z
pdata	ENDS
;	COMDAT pdata
pdata	SEGMENT
$pdata$?__empty_global_delete@@YAXPEAX_K@Z DD imagerel $LN3
	DD	imagerel $LN3+46
	DD	imagerel $unwind$?__empty_global_delete@@YAXPEAX_K@Z
pdata	ENDS
;	COMDAT pdata
pdata	SEGMENT
$pdata$?PersonaDefaultConstructor@@YAPEAUCPersona@@XZ DD imagerel $LN3
	DD	imagerel $LN3+92
	DD	imagerel $unwind$?PersonaDefaultConstructor@@YAPEAUCPersona@@XZ
pdata	ENDS
;	COMDAT pdata
pdata	SEGMENT
$pdata$?PersonaConstructorBebe@@YAPEAUCPersona@@PEAD0@Z DD imagerel $LN3
	DD	imagerel $LN3+117
	DD	imagerel $unwind$?PersonaConstructorBebe@@YAPEAUCPersona@@PEAD0@Z
pdata	ENDS
;	COMDAT pdata
pdata	SEGMENT
$pdata$?PersonaConstructorAdulto@@YAPEAUCPersona@@PEAD00@Z DD imagerel $LN3
	DD	imagerel $LN3+145
	DD	imagerel $unwind$?PersonaConstructorAdulto@@YAPEAUCPersona@@PEAD00@Z
pdata	ENDS
;	COMDAT pdata
pdata	SEGMENT
$pdata$?PersonaDestructor@@YAXPEAUCPersona@@@Z DD imagerel $LN3
	DD	imagerel $LN3+54
	DD	imagerel $unwind$?PersonaDestructor@@YAXPEAUCPersona@@@Z
pdata	ENDS
;	COMDAT pdata
pdata	SEGMENT
$pdata$?CopiarPunterosFuncion@@YAXPEAUCModeloPersona@@PEAUCPersona@@@Z DD imagerel $LN3
	DD	imagerel $LN3+158
	DD	imagerel $unwind$?CopiarPunterosFuncion@@YAXPEAUCModeloPersona@@PEAUCPersona@@@Z
pdata	ENDS
;	COMDAT pdata
pdata	SEGMENT
$pdata$?_new@@YAPEAXPEAX@Z DD imagerel $LN5
	DD	imagerel $LN5+315
	DD	imagerel $unwind$?_new@@YAPEAXPEAX@Z
pdata	ENDS
;	COMDAT pdata
pdata	SEGMENT
$pdata$?_delete@@YAXPEAUCPersona@@@Z DD imagerel $LN6
	DD	imagerel $LN6+174
	DD	imagerel $unwind$?_delete@@YAXPEAUCPersona@@@Z
pdata	ENDS
;	COMDAT pdata
pdata	SEGMENT
$pdata$main DD	imagerel $LN4
	DD	imagerel $LN4+311
	DD	imagerel $unwind$main
pdata	ENDS
;	COMDAT rtc$TMZ
rtc$TMZ	SEGMENT
_RTC_Shutdown.rtc$TMZ DQ FLAT:_RTC_Shutdown
rtc$TMZ	ENDS
;	COMDAT rtc$IMZ
rtc$IMZ	SEGMENT
_RTC_InitBase.rtc$IMZ DQ FLAT:_RTC_InitBase
rtc$IMZ	ENDS
;	COMDAT ??_C@_09MABIEKFK@Barcelona@
CONST	SEGMENT
??_C@_09MABIEKFK@Barcelona@ DB 'Barcelona', 00H		; `string'
CONST	ENDS
;	COMDAT ??_C@_05NABAIBHE@08000@
CONST	SEGMENT
??_C@_05NABAIBHE@08000@ DB '08000', 00H			; `string'
CONST	ENDS
;	COMDAT ??_C@_0O@BMLAFPLF@C?1Voramar?0?537@
CONST	SEGMENT
??_C@_0O@BMLAFPLF@C?1Voramar?0?537@ DB 'C/Voramar, 37', 00H ; `string'
CONST	ENDS
;	COMDAT ??_C@_0M@KPCPAONJ@Casamitjana@
CONST	SEGMENT
??_C@_0M@KPCPAONJ@Casamitjana@ DB 'Casamitjana', 00H	; `string'
CONST	ENDS
;	COMDAT ??_C@_08IPDJMKIL@Francesc@
CONST	SEGMENT
??_C@_08IPDJMKIL@Francesc@ DB 'Francesc', 00H		; `string'
CONST	ENDS
;	COMDAT ??_C@_0L@IKBJHEF@NIF1234567@
CONST	SEGMENT
??_C@_0L@IKBJHEF@NIF1234567@ DB 'NIF1234567', 00H	; `string'
CONST	ENDS
;	COMDAT ??_C@_08NHDDCJFL@CPersona@
CONST	SEGMENT
??_C@_08NHDDCJFL@CPersona@ DB 'CPersona', 00H		; `string'
CONST	ENDS
;	COMDAT voltbl
voltbl	SEGMENT
_volmd	DW	02aH
	DW	011eH
voltbl	ENDS
;	COMDAT xdata
xdata	SEGMENT
$unwind$main DD	025053119H
	DD	010a230fH
	DD	070030049H
	DD	05002H
	DD	imagerel __GSHandlerCheck
	DD	0238H
xdata	ENDS
;	COMDAT CONST
CONST	SEGMENT
main$rtcName$0 DB 073H
	DB	07aH
	DB	04eH
	DB	049H
	DB	046H
	DB	00H
	ORG $+2
main$rtcName$1 DB 073H
	DB	07aH
	DB	04eH
	DB	06fH
	DB	06dH
	DB	062H
	DB	072H
	DB	065H
	DB	00H
	ORG $+7
main$rtcName$2 DB 073H
	DB	07aH
	DB	041H
	DB	070H
	DB	065H
	DB	06cH
	DB	06cH
	DB	069H
	DB	064H
	DB	06fH
	DB	073H
	DB	00H
	ORG $+12
main$rtcVarDesc DD 0e0H
	DD	064H
	DQ	FLAT:main$rtcName$2
	DD	078H
	DD	03cH
	DQ	FLAT:main$rtcName$1
	DD	028H
	DD	032H
	DQ	FLAT:main$rtcName$0
	ORG $+144
main$rtcFrameData DD 03H
	DD	00H
	DQ	FLAT:main$rtcVarDesc
CONST	ENDS
;	COMDAT xdata
xdata	SEGMENT
$unwind$?_delete@@YAXPEAUCPersona@@@Z DD 025051301H
	DD	010e2313H
	DD	07007001dH
	DD	05006H
xdata	ENDS
;	COMDAT xdata
xdata	SEGMENT
$unwind$?_new@@YAPEAXPEAX@Z DD 025051301H
	DD	010e2313H
	DD	070070025H
	DD	05006H
xdata	ENDS
;	COMDAT xdata
xdata	SEGMENT
$unwind$?CopiarPunterosFuncion@@YAXPEAUCModeloPersona@@PEAUCPersona@@@Z DD 025051801H
	DD	01132318H
	DD	0700c001dH
	DD	0500bH
xdata	ENDS
;	COMDAT xdata
xdata	SEGMENT
$unwind$?PersonaDestructor@@YAXPEAUCPersona@@@Z DD 025051301H
	DD	010e2313H
	DD	07007001dH
	DD	05006H
xdata	ENDS
;	COMDAT xdata
xdata	SEGMENT
$unwind$?PersonaConstructorAdulto@@YAPEAUCPersona@@PEAD00@Z DD 025051d01H
	DD	0118231dH
	DD	070110021H
	DD	05010H
xdata	ENDS
;	COMDAT xdata
xdata	SEGMENT
$unwind$?PersonaConstructorBebe@@YAPEAUCPersona@@PEAD0@Z DD 025051801H
	DD	01132318H
	DD	0700c0021H
	DD	0500bH
xdata	ENDS
;	COMDAT xdata
xdata	SEGMENT
$unwind$?PersonaDefaultConstructor@@YAPEAUCPersona@@XZ DD 025050f01H
	DD	010a230fH
	DD	070030021H
	DD	05002H
xdata	ENDS
;	COMDAT xdata
xdata	SEGMENT
$unwind$?__empty_global_delete@@YAXPEAX_K@Z DD 025051801H
	DD	01132318H
	DD	0700c001dH
	DD	0500bH
xdata	ENDS
;	COMDAT xdata
xdata	SEGMENT
$unwind$?__empty_global_delete@@YAXPEAX@Z DD 025051301H
	DD	010e2313H
	DD	07007001dH
	DD	05006H
xdata	ENDS
; Function compile flags: /Odt
;	COMDAT __JustMyCode_Default
_TEXT	SEGMENT
__JustMyCode_Default PROC				; COMDAT
  00000	c2 00 00	 ret	 0
__JustMyCode_Default ENDP
_TEXT	ENDS
; Function compile flags: /Odtp /RTCsu /ZI
; File D:\Develop\Marcombo\MarSalud\MarSalud\MarSalud.cpp
;	COMDAT main
_TEXT	SEGMENT
szNIF$ = 8
szNombre$ = 88
szApellidos$ = 192
pPersonaDinamica$ = 328
__$ArrayPad$ = 536
main	PROC						; COMDAT

; 175  : {

$LN4:
  00000	40 55		 push	 rbp
  00002	57		 push	 rdi
  00003	48 81 ec 48 02
	00 00		 sub	 rsp, 584		; 00000248H
  0000a	48 8d 6c 24 20	 lea	 rbp, QWORD PTR [rsp+32]
  0000f	48 8d 7c 24 20	 lea	 rdi, QWORD PTR [rsp+32]
  00014	b9 5a 00 00 00	 mov	 ecx, 90			; 0000005aH
  00019	b8 cc cc cc cc	 mov	 eax, -858993460		; ccccccccH
  0001e	f3 ab		 rep stosd
  00020	48 8b 05 00 00
	00 00		 mov	 rax, QWORD PTR __security_cookie
  00027	48 33 c5	 xor	 rax, rbp
  0002a	48 89 85 18 02
	00 00		 mov	 QWORD PTR __$ArrayPad$[rbp], rax
  00031	48 8d 0d 00 00
	00 00		 lea	 rcx, OFFSET FLAT:__12060E09_MarSalud@cpp
  00038	e8 00 00 00 00	 call	 __CheckForDebuggerJustMyCode

; 176  :     // ¿Qué fue antes? ¿el huevo o la gallina? 
; 177  :     // O sea: ¿el modelo de objeto o la instancia?
; 178  :     char szNIF[50];
; 179  :     char szNombre[60];
; 180  :     char szApellidos[100];
; 181  : 
; 182  :     strcpy(szNIF, "NIF1234567");

  0003d	48 8d 15 00 00
	00 00		 lea	 rdx, OFFSET FLAT:??_C@_0L@IKBJHEF@NIF1234567@
  00044	48 8d 4d 08	 lea	 rcx, QWORD PTR szNIF$[rbp]
  00048	e8 00 00 00 00	 call	 strcpy

; 183  :     strcpy(szNombre, "Francesc");

  0004d	48 8d 15 00 00
	00 00		 lea	 rdx, OFFSET FLAT:??_C@_08IPDJMKIL@Francesc@
  00054	48 8d 4d 58	 lea	 rcx, QWORD PTR szNombre$[rbp]
  00058	e8 00 00 00 00	 call	 strcpy

; 184  :     strcpy(szApellidos, "Casamitjana");

  0005d	48 8d 15 00 00
	00 00		 lea	 rdx, OFFSET FLAT:??_C@_0M@KPCPAONJ@Casamitjana@
  00064	48 8d 8d c0 00
	00 00		 lea	 rcx, QWORD PTR szApellidos$[rbp]
  0006b	e8 00 00 00 00	 call	 strcpy

; 185  :     
; 186  :     CPersona* pPersonaDinamica = NULL;

  00070	48 c7 85 48 01
	00 00 00 00 00
	00		 mov	 QWORD PTR pPersonaDinamica$[rbp], 0

; 187  :     
; 188  :     pPersonaDinamica = (CPersonaPtr)_new(PersonaConstructorAdulto(szNIF, szNombre, szApellidos));

  0007b	4c 8d 85 c0 00
	00 00		 lea	 r8, QWORD PTR szApellidos$[rbp]
  00082	48 8d 55 58	 lea	 rdx, QWORD PTR szNombre$[rbp]
  00086	48 8d 4d 08	 lea	 rcx, QWORD PTR szNIF$[rbp]
  0008a	e8 00 00 00 00	 call	 ?PersonaConstructorAdulto@@YAPEAUCPersona@@PEAD00@Z ; PersonaConstructorAdulto
  0008f	48 8b c8	 mov	 rcx, rax
  00092	e8 00 00 00 00	 call	 ?_new@@YAPEAXPEAX@Z	; _new
  00097	48 89 85 48 01
	00 00		 mov	 QWORD PTR pPersonaDinamica$[rbp], rax

; 189  :     if (pPersonaDinamica)

  0009e	48 83 bd 48 01
	00 00 00	 cmp	 QWORD PTR pPersonaDinamica$[rbp], 0
  000a6	74 54		 je	 SHORT $LN2@main

; 190  :     {
; 191  :         strcpy(pPersonaDinamica->m_szDireccion, "C/Voramar, 37");

  000a8	48 8b 85 48 01
	00 00		 mov	 rax, QWORD PTR pPersonaDinamica$[rbp]
  000af	48 05 78 01 00
	00		 add	 rax, 376		; 00000178H
  000b5	48 8d 15 00 00
	00 00		 lea	 rdx, OFFSET FLAT:??_C@_0O@BMLAFPLF@C?1Voramar?0?537@
  000bc	48 8b c8	 mov	 rcx, rax
  000bf	e8 00 00 00 00	 call	 strcpy

; 192  :         strcpy(pPersonaDinamica->m_szCodPostal, "08000");

  000c4	48 8b 85 48 01
	00 00		 mov	 rax, QWORD PTR pPersonaDinamica$[rbp]
  000cb	48 05 40 02 00
	00		 add	 rax, 576		; 00000240H
  000d1	48 8d 15 00 00
	00 00		 lea	 rdx, OFFSET FLAT:??_C@_05NABAIBHE@08000@
  000d8	48 8b c8	 mov	 rcx, rax
  000db	e8 00 00 00 00	 call	 strcpy

; 193  :         strcpy(pPersonaDinamica->m_szPoblacion, "Barcelona");

  000e0	48 8b 85 48 01
	00 00		 mov	 rax, QWORD PTR pPersonaDinamica$[rbp]
  000e7	48 05 4a 02 00
	00		 add	 rax, 586		; 0000024aH
  000ed	48 8d 15 00 00
	00 00		 lea	 rdx, OFFSET FLAT:??_C@_09MABIEKFK@Barcelona@
  000f4	48 8b c8	 mov	 rcx, rax
  000f7	e8 00 00 00 00	 call	 strcpy
$LN2@main:

; 194  :     }
; 195  : 
; 196  :     _delete(pPersonaDinamica);

  000fc	48 8b 8d 48 01
	00 00		 mov	 rcx, QWORD PTR pPersonaDinamica$[rbp]
  00103	e8 00 00 00 00	 call	 ?_delete@@YAXPEAUCPersona@@@Z ; _delete

; 197  : }

  00108	33 c0		 xor	 eax, eax
  0010a	8b f8		 mov	 edi, eax
  0010c	48 8d 4d e0	 lea	 rcx, QWORD PTR [rbp-32]
  00110	48 8d 15 00 00
	00 00		 lea	 rdx, OFFSET FLAT:main$rtcFrameData
  00117	e8 00 00 00 00	 call	 _RTC_CheckStackVars
  0011c	8b c7		 mov	 eax, edi
  0011e	48 8b 8d 18 02
	00 00		 mov	 rcx, QWORD PTR __$ArrayPad$[rbp]
  00125	48 33 cd	 xor	 rcx, rbp
  00128	e8 00 00 00 00	 call	 __security_check_cookie
  0012d	48 8d a5 28 02
	00 00		 lea	 rsp, QWORD PTR [rbp+552]
  00134	5f		 pop	 rdi
  00135	5d		 pop	 rbp
  00136	c3		 ret	 0
main	ENDP
_TEXT	ENDS
; Function compile flags: /Odtp /RTCsu /ZI
; File D:\Develop\Marcombo\MarSalud\MarSalud\MarSalud.cpp
;	COMDAT ?_delete@@YAXPEAUCPersona@@@Z
_TEXT	SEGMENT
pObjeto$ = 224
?_delete@@YAXPEAUCPersona@@@Z PROC			; _delete, COMDAT

; 157  : {

$LN6:
  00000	48 89 4c 24 08	 mov	 QWORD PTR [rsp+8], rcx
  00005	55		 push	 rbp
  00006	57		 push	 rdi
  00007	48 81 ec e8 00
	00 00		 sub	 rsp, 232		; 000000e8H
  0000e	48 8d 6c 24 20	 lea	 rbp, QWORD PTR [rsp+32]
  00013	48 8d 0d 00 00
	00 00		 lea	 rcx, OFFSET FLAT:__12060E09_MarSalud@cpp
  0001a	e8 00 00 00 00	 call	 __CheckForDebuggerJustMyCode

; 158  :     if (pObjeto->m_pModelo)

  0001f	48 8b 85 e0 00
	00 00		 mov	 rax, QWORD PTR pObjeto$[rbp]
  00026	48 83 78 08 00	 cmp	 QWORD PTR [rax+8], 0
  0002b	74 58		 je	 SHORT $LN2@delete

; 159  :     {
; 160  :         if (pObjeto->m_pModelo->m_nContador > 0)

  0002d	48 8b 85 e0 00
	00 00		 mov	 rax, QWORD PTR pObjeto$[rbp]
  00034	48 8b 40 08	 mov	 rax, QWORD PTR [rax+8]
  00038	83 78 64 00	 cmp	 DWORD PTR [rax+100], 0
  0003c	7e 1e		 jle	 SHORT $LN3@delete

; 161  :         {
; 162  :             pObjeto->m_pModelo->m_nContador--;

  0003e	48 8b 85 e0 00
	00 00		 mov	 rax, QWORD PTR pObjeto$[rbp]
  00045	48 8b 40 08	 mov	 rax, QWORD PTR [rax+8]
  00049	8b 40 64	 mov	 eax, DWORD PTR [rax+100]
  0004c	ff c8		 dec	 eax
  0004e	48 8b 8d e0 00
	00 00		 mov	 rcx, QWORD PTR pObjeto$[rbp]
  00055	48 8b 49 08	 mov	 rcx, QWORD PTR [rcx+8]
  00059	89 41 64	 mov	 DWORD PTR [rcx+100], eax
$LN3@delete:

; 163  :         }
; 164  :         if (pObjeto->m_pModelo->m_nContador == 0)

  0005c	48 8b 85 e0 00
	00 00		 mov	 rax, QWORD PTR pObjeto$[rbp]
  00063	48 8b 40 08	 mov	 rax, QWORD PTR [rax+8]
  00067	83 78 64 00	 cmp	 DWORD PTR [rax+100], 0
  0006b	75 18		 jne	 SHORT $LN4@delete

; 165  :         {
; 166  :             free(_pModelo);

  0006d	48 8b 0d 00 00
	00 00		 mov	 rcx, QWORD PTR ?_pModelo@@3PEAUCModeloPersona@@EA
  00074	ff 15 00 00 00
	00		 call	 QWORD PTR __imp_free

; 167  :             _pModelo = NULL;

  0007a	48 c7 05 00 00
	00 00 00 00 00
	00		 mov	 QWORD PTR ?_pModelo@@3PEAUCModeloPersona@@EA, 0
$LN4@delete:
$LN2@delete:

; 168  :         }
; 169  :     }
; 170  :     (pObjeto->m_lpfnDestructor)(pObjeto);

  00085	48 8b 8d e0 00
	00 00		 mov	 rcx, QWORD PTR pObjeto$[rbp]
  0008c	48 8b 85 e0 00
	00 00		 mov	 rax, QWORD PTR pObjeto$[rbp]
  00093	ff 90 d0 03 00
	00		 call	 QWORD PTR [rax+976]

; 171  :     pObjeto = NULL;

  00099	48 c7 85 e0 00
	00 00 00 00 00
	00		 mov	 QWORD PTR pObjeto$[rbp], 0

; 172  : }

  000a4	48 8d a5 c8 00
	00 00		 lea	 rsp, QWORD PTR [rbp+200]
  000ab	5f		 pop	 rdi
  000ac	5d		 pop	 rbp
  000ad	c3		 ret	 0
?_delete@@YAXPEAUCPersona@@@Z ENDP			; _delete
_TEXT	ENDS
; Function compile flags: /Odtp /RTCsu /ZI
; File D:\Develop\Marcombo\MarSalud\MarSalud\MarSalud.cpp
;	COMDAT ?_new@@YAPEAXPEAX@Z
_TEXT	SEGMENT
pInstancia$ = 8
lpfnAdHocConstructor$ = 40
pInstConstructorResult$ = 288
?_new@@YAPEAXPEAX@Z PROC				; _new, COMDAT

; 122  : {

$LN5:
  00000	48 89 4c 24 08	 mov	 QWORD PTR [rsp+8], rcx
  00005	55		 push	 rbp
  00006	57		 push	 rdi
  00007	48 81 ec 28 01
	00 00		 sub	 rsp, 296		; 00000128H
  0000e	48 8d 6c 24 20	 lea	 rbp, QWORD PTR [rsp+32]
  00013	48 8d 0d 00 00
	00 00		 lea	 rcx, OFFSET FLAT:__12060E09_MarSalud@cpp
  0001a	e8 00 00 00 00	 call	 __CheckForDebuggerJustMyCode

; 123  :     CPersona * pInstancia = (CPersonaPtr)pInstConstructorResult;

  0001f	48 8b 85 20 01
	00 00		 mov	 rax, QWORD PTR pInstConstructorResult$[rbp]
  00026	48 89 45 08	 mov	 QWORD PTR pInstancia$[rbp], rax

; 124  :     CPersona::LPFNPERSONADEFAULTCONSTRUCTOR lpfnAdHocConstructor = NULL;

  0002a	48 c7 45 28 00
	00 00 00	 mov	 QWORD PTR lpfnAdHocConstructor$[rbp], 0

; 125  : 
; 126  :     if (_pModelo == NULL)

  00032	48 83 3d 00 00
	00 00 00	 cmp	 QWORD PTR ?_pModelo@@3PEAUCModeloPersona@@EA, 0
  0003a	0f 85 90 00 00
	00		 jne	 $LN2@new

; 127  :     {
; 128  :         _pModelo = (CModeloPersonaPtr)malloc(sizeof(CModeloPersona));

  00040	b9 40 04 00 00	 mov	 ecx, 1088		; 00000440H
  00045	ff 15 00 00 00
	00		 call	 QWORD PTR __imp_malloc
  0004b	48 89 05 00 00
	00 00		 mov	 QWORD PTR ?_pModelo@@3PEAUCModeloPersona@@EA, rax

; 129  :         memset(_pModelo, 0, sizeof(CModeloPersona));

  00052	41 b8 40 04 00
	00		 mov	 r8d, 1088		; 00000440H
  00058	33 d2		 xor	 edx, edx
  0005a	48 8b 0d 00 00
	00 00		 mov	 rcx, QWORD PTR ?_pModelo@@3PEAUCModeloPersona@@EA
  00061	e8 00 00 00 00	 call	 memset

; 130  :         strcpy(_pModelo->m_szRuntimeClassName, "CPersona");

  00066	48 8b 05 00 00
	00 00		 mov	 rax, QWORD PTR ?_pModelo@@3PEAUCModeloPersona@@EA
  0006d	48 8d 15 00 00
	00 00		 lea	 rdx, OFFSET FLAT:??_C@_08NHDDCJFL@CPersona@
  00074	48 8b c8	 mov	 rcx, rax
  00077	e8 00 00 00 00	 call	 strcpy

; 131  : 
; 132  :         //Cargar los punteros a función:
; 133  :         _pModelo->m_persona.m_lpfnPersonaDefaultConstructor = PersonaDefaultConstructor;

  0007c	48 8b 05 00 00
	00 00		 mov	 rax, QWORD PTR ?_pModelo@@3PEAUCModeloPersona@@EA
  00083	48 8d 0d 00 00
	00 00		 lea	 rcx, OFFSET FLAT:?PersonaDefaultConstructor@@YAPEAUCPersona@@XZ ; PersonaDefaultConstructor
  0008a	48 89 88 20 04
	00 00		 mov	 QWORD PTR [rax+1056], rcx

; 134  :         _pModelo->m_persona.m_lpfnPersonaConstructorBebe = PersonaConstructorBebe;

  00091	48 8b 05 00 00
	00 00		 mov	 rax, QWORD PTR ?_pModelo@@3PEAUCModeloPersona@@EA
  00098	48 8d 0d 00 00
	00 00		 lea	 rcx, OFFSET FLAT:?PersonaConstructorBebe@@YAPEAUCPersona@@PEAD0@Z ; PersonaConstructorBebe
  0009f	48 89 88 28 04
	00 00		 mov	 QWORD PTR [rax+1064], rcx

; 135  :         _pModelo->m_persona.m_lpfnPersonaConstructorAdulto = PersonaConstructorAdulto;

  000a6	48 8b 05 00 00
	00 00		 mov	 rax, QWORD PTR ?_pModelo@@3PEAUCModeloPersona@@EA
  000ad	48 8d 0d 00 00
	00 00		 lea	 rcx, OFFSET FLAT:?PersonaConstructorAdulto@@YAPEAUCPersona@@PEAD00@Z ; PersonaConstructorAdulto
  000b4	48 89 88 30 04
	00 00		 mov	 QWORD PTR [rax+1072], rcx

; 136  :         _pModelo->m_persona.m_lpfnDestructor = PersonaDestructor;

  000bb	48 8b 05 00 00
	00 00		 mov	 rax, QWORD PTR ?_pModelo@@3PEAUCModeloPersona@@EA
  000c2	48 8d 0d 00 00
	00 00		 lea	 rcx, OFFSET FLAT:?PersonaDestructor@@YAXPEAUCPersona@@@Z ; PersonaDestructor
  000c9	48 89 88 38 04
	00 00		 mov	 QWORD PTR [rax+1080], rcx
$LN2@new:

; 137  :     }
; 138  :     
; 139  :     if (pInstancia)

  000d0	48 83 7d 08 00	 cmp	 QWORD PTR pInstancia$[rbp], 0
  000d5	74 56		 je	 SHORT $LN3@new

; 140  :     {
; 141  :         pInstancia->m_this = pInstancia; //Puntero de la instancia de persona hacia sí misma

  000d7	48 8b 45 08	 mov	 rax, QWORD PTR pInstancia$[rbp]
  000db	48 8b 4d 08	 mov	 rcx, QWORD PTR pInstancia$[rbp]
  000df	48 89 08	 mov	 QWORD PTR [rax], rcx

; 142  :         pInstancia->m_pModelo = _pModelo; //Puntero de la instancia hacia el modelo

  000e2	48 8b 45 08	 mov	 rax, QWORD PTR pInstancia$[rbp]
  000e6	48 8b 0d 00 00
	00 00		 mov	 rcx, QWORD PTR ?_pModelo@@3PEAUCModeloPersona@@EA
  000ed	48 89 48 08	 mov	 QWORD PTR [rax+8], rcx

; 143  : 
; 144  :         //Datos de sistema propios del modelo:
; 145  :         strcpy(_pModelo->m_szRuntimeClassName, "CPersona");

  000f1	48 8b 05 00 00
	00 00		 mov	 rax, QWORD PTR ?_pModelo@@3PEAUCModeloPersona@@EA
  000f8	48 8d 15 00 00
	00 00		 lea	 rdx, OFFSET FLAT:??_C@_08NHDDCJFL@CPersona@
  000ff	48 8b c8	 mov	 rcx, rax
  00102	e8 00 00 00 00	 call	 strcpy

; 146  : 
; 147  :         _pModelo->m_nContador++; //Incrementar el contador de usuarios de modelo

  00107	48 8b 05 00 00
	00 00		 mov	 rax, QWORD PTR ?_pModelo@@3PEAUCModeloPersona@@EA
  0010e	8b 40 64	 mov	 eax, DWORD PTR [rax+100]
  00111	ff c0		 inc	 eax
  00113	48 8b 0d 00 00
	00 00		 mov	 rcx, QWORD PTR ?_pModelo@@3PEAUCModeloPersona@@EA
  0011a	89 41 64	 mov	 DWORD PTR [rcx+100], eax

; 148  : 
; 149  :         CopiarPunterosFuncion(_pModelo, pInstancia); //parámetros = origen, destino

  0011d	48 8b 55 08	 mov	 rdx, QWORD PTR pInstancia$[rbp]
  00121	48 8b 0d 00 00
	00 00		 mov	 rcx, QWORD PTR ?_pModelo@@3PEAUCModeloPersona@@EA
  00128	e8 00 00 00 00	 call	 ?CopiarPunterosFuncion@@YAXPEAUCModeloPersona@@PEAUCPersona@@@Z ; CopiarPunterosFuncion
$LN3@new:

; 150  :     }
; 151  :     
; 152  :     return pInstancia;

  0012d	48 8b 45 08	 mov	 rax, QWORD PTR pInstancia$[rbp]

; 153  : }

  00131	48 8d a5 08 01
	00 00		 lea	 rsp, QWORD PTR [rbp+264]
  00138	5f		 pop	 rdi
  00139	5d		 pop	 rbp
  0013a	c3		 ret	 0
?_new@@YAPEAXPEAX@Z ENDP				; _new
_TEXT	ENDS
; Function compile flags: /Odtp /RTCsu /ZI
; File D:\Develop\Marcombo\MarSalud\MarSalud\MarSalud.cpp
;	COMDAT ?CopiarPunterosFuncion@@YAXPEAUCModeloPersona@@PEAUCPersona@@@Z
_TEXT	SEGMENT
pModelo$ = 224
pInstancia$ = 232
?CopiarPunterosFuncion@@YAXPEAUCModeloPersona@@PEAUCPersona@@@Z PROC ; CopiarPunterosFuncion, COMDAT

; 113  : {

$LN3:
  00000	48 89 54 24 10	 mov	 QWORD PTR [rsp+16], rdx
  00005	48 89 4c 24 08	 mov	 QWORD PTR [rsp+8], rcx
  0000a	55		 push	 rbp
  0000b	57		 push	 rdi
  0000c	48 81 ec e8 00
	00 00		 sub	 rsp, 232		; 000000e8H
  00013	48 8d 6c 24 20	 lea	 rbp, QWORD PTR [rsp+32]
  00018	48 8d 0d 00 00
	00 00		 lea	 rcx, OFFSET FLAT:__12060E09_MarSalud@cpp
  0001f	e8 00 00 00 00	 call	 __CheckForDebuggerJustMyCode

; 114  :     pInstancia->m_lpfnPersonaDefaultConstructor = pModelo->m_persona.m_lpfnPersonaDefaultConstructor;

  00024	48 8b 85 e8 00
	00 00		 mov	 rax, QWORD PTR pInstancia$[rbp]
  0002b	48 8b 8d e0 00
	00 00		 mov	 rcx, QWORD PTR pModelo$[rbp]
  00032	48 8b 89 20 04
	00 00		 mov	 rcx, QWORD PTR [rcx+1056]
  00039	48 89 88 b8 03
	00 00		 mov	 QWORD PTR [rax+952], rcx

; 115  :     pInstancia->m_lpfnPersonaConstructorBebe    = pModelo->m_persona.m_lpfnPersonaConstructorBebe;

  00040	48 8b 85 e8 00
	00 00		 mov	 rax, QWORD PTR pInstancia$[rbp]
  00047	48 8b 8d e0 00
	00 00		 mov	 rcx, QWORD PTR pModelo$[rbp]
  0004e	48 8b 89 28 04
	00 00		 mov	 rcx, QWORD PTR [rcx+1064]
  00055	48 89 88 c0 03
	00 00		 mov	 QWORD PTR [rax+960], rcx

; 116  :     pInstancia->m_lpfnPersonaConstructorAdulto  = pModelo->m_persona.m_lpfnPersonaConstructorAdulto;

  0005c	48 8b 85 e8 00
	00 00		 mov	 rax, QWORD PTR pInstancia$[rbp]
  00063	48 8b 8d e0 00
	00 00		 mov	 rcx, QWORD PTR pModelo$[rbp]
  0006a	48 8b 89 30 04
	00 00		 mov	 rcx, QWORD PTR [rcx+1072]
  00071	48 89 88 c8 03
	00 00		 mov	 QWORD PTR [rax+968], rcx

; 117  :     pInstancia->m_lpfnDestructor = pModelo->m_persona.m_lpfnDestructor;

  00078	48 8b 85 e8 00
	00 00		 mov	 rax, QWORD PTR pInstancia$[rbp]
  0007f	48 8b 8d e0 00
	00 00		 mov	 rcx, QWORD PTR pModelo$[rbp]
  00086	48 8b 89 38 04
	00 00		 mov	 rcx, QWORD PTR [rcx+1080]
  0008d	48 89 88 d0 03
	00 00		 mov	 QWORD PTR [rax+976], rcx

; 118  : }

  00094	48 8d a5 c8 00
	00 00		 lea	 rsp, QWORD PTR [rbp+200]
  0009b	5f		 pop	 rdi
  0009c	5d		 pop	 rbp
  0009d	c3		 ret	 0
?CopiarPunterosFuncion@@YAXPEAUCModeloPersona@@PEAUCPersona@@@Z ENDP ; CopiarPunterosFuncion
_TEXT	ENDS
; Function compile flags: /Odtp /RTCsu /ZI
; File D:\Develop\Marcombo\MarSalud\MarSalud\MarSalud.cpp
;	COMDAT ?PersonaDestructor@@YAXPEAUCPersona@@@Z
_TEXT	SEGMENT
pObjeto$ = 224
?PersonaDestructor@@YAXPEAUCPersona@@@Z PROC		; PersonaDestructor, COMDAT

; 104  : {

$LN3:
  00000	48 89 4c 24 08	 mov	 QWORD PTR [rsp+8], rcx
  00005	55		 push	 rbp
  00006	57		 push	 rdi
  00007	48 81 ec e8 00
	00 00		 sub	 rsp, 232		; 000000e8H
  0000e	48 8d 6c 24 20	 lea	 rbp, QWORD PTR [rsp+32]
  00013	48 8d 0d 00 00
	00 00		 lea	 rcx, OFFSET FLAT:__12060E09_MarSalud@cpp
  0001a	e8 00 00 00 00	 call	 __CheckForDebuggerJustMyCode

; 105  :     // Otras tareas de liberación y restauración
; 106  :     // de recursos...
; 107  : 
; 108  :     //Destruir el propio objeto
; 109  :     free(pObjeto);

  0001f	48 8b 8d e0 00
	00 00		 mov	 rcx, QWORD PTR pObjeto$[rbp]
  00026	ff 15 00 00 00
	00		 call	 QWORD PTR __imp_free

; 110  : }

  0002c	48 8d a5 c8 00
	00 00		 lea	 rsp, QWORD PTR [rbp+200]
  00033	5f		 pop	 rdi
  00034	5d		 pop	 rbp
  00035	c3		 ret	 0
?PersonaDestructor@@YAXPEAUCPersona@@@Z ENDP		; PersonaDestructor
_TEXT	ENDS
; Function compile flags: /Odtp /RTCsu /ZI
; File D:\Develop\Marcombo\MarSalud\MarSalud\MarSalud.cpp
;	COMDAT ?PersonaConstructorAdulto@@YAPEAUCPersona@@PEAD00@Z
_TEXT	SEGMENT
pNuevoObjeto$ = 8
lpszNIF$ = 256
lpszNombre$ = 264
lpszApellidos$ = 272
?PersonaConstructorAdulto@@YAPEAUCPersona@@PEAD00@Z PROC ; PersonaConstructorAdulto, COMDAT

; 88   : {

$LN3:
  00000	4c 89 44 24 18	 mov	 QWORD PTR [rsp+24], r8
  00005	48 89 54 24 10	 mov	 QWORD PTR [rsp+16], rdx
  0000a	48 89 4c 24 08	 mov	 QWORD PTR [rsp+8], rcx
  0000f	55		 push	 rbp
  00010	57		 push	 rdi
  00011	48 81 ec 08 01
	00 00		 sub	 rsp, 264		; 00000108H
  00018	48 8d 6c 24 20	 lea	 rbp, QWORD PTR [rsp+32]
  0001d	48 8d 0d 00 00
	00 00		 lea	 rcx, OFFSET FLAT:__12060E09_MarSalud@cpp
  00024	e8 00 00 00 00	 call	 __CheckForDebuggerJustMyCode

; 89   :     CPersonaPtr pNuevoObjeto = NULL;

  00029	48 c7 45 08 00
	00 00 00	 mov	 QWORD PTR pNuevoObjeto$[rbp], 0

; 90   : 
; 91   :     //Llamar al constructor por defecto:
; 92   :     pNuevoObjeto = PersonaDefaultConstructor();

  00031	e8 00 00 00 00	 call	 ?PersonaDefaultConstructor@@YAPEAUCPersona@@XZ ; PersonaDefaultConstructor
  00036	48 89 45 08	 mov	 QWORD PTR pNuevoObjeto$[rbp], rax

; 93   : 
; 94   :     //Cargar valores de NIF, nombre y apellidos:
; 95   :     strcpy(pNuevoObjeto->m_szNIF, lpszNIF);

  0003a	48 8b 45 08	 mov	 rax, QWORD PTR pNuevoObjeto$[rbp]
  0003e	48 83 c0 60	 add	 rax, 96			; 00000060H
  00042	48 8b 95 00 01
	00 00		 mov	 rdx, QWORD PTR lpszNIF$[rbp]
  00049	48 8b c8	 mov	 rcx, rax
  0004c	e8 00 00 00 00	 call	 strcpy

; 96   :     strcpy(pNuevoObjeto->m_szNombre, lpszNombre);

  00051	48 8b 45 08	 mov	 rax, QWORD PTR pNuevoObjeto$[rbp]
  00055	48 05 c4 00 00
	00		 add	 rax, 196		; 000000c4H
  0005b	48 8b 95 08 01
	00 00		 mov	 rdx, QWORD PTR lpszNombre$[rbp]
  00062	48 8b c8	 mov	 rcx, rax
  00065	e8 00 00 00 00	 call	 strcpy

; 97   :     strcpy(pNuevoObjeto->m_szApellidos, lpszApellidos);

  0006a	48 8b 45 08	 mov	 rax, QWORD PTR pNuevoObjeto$[rbp]
  0006e	48 05 00 01 00
	00		 add	 rax, 256		; 00000100H
  00074	48 8b 95 10 01
	00 00		 mov	 rdx, QWORD PTR lpszApellidos$[rbp]
  0007b	48 8b c8	 mov	 rcx, rax
  0007e	e8 00 00 00 00	 call	 strcpy

; 98   : 
; 99   :     return pNuevoObjeto;

  00083	48 8b 45 08	 mov	 rax, QWORD PTR pNuevoObjeto$[rbp]

; 100  : }

  00087	48 8d a5 e8 00
	00 00		 lea	 rsp, QWORD PTR [rbp+232]
  0008e	5f		 pop	 rdi
  0008f	5d		 pop	 rbp
  00090	c3		 ret	 0
?PersonaConstructorAdulto@@YAPEAUCPersona@@PEAD00@Z ENDP ; PersonaConstructorAdulto
_TEXT	ENDS
; Function compile flags: /Odtp /RTCsu /ZI
; File D:\Develop\Marcombo\MarSalud\MarSalud\MarSalud.cpp
;	COMDAT ?PersonaConstructorBebe@@YAPEAUCPersona@@PEAD0@Z
_TEXT	SEGMENT
pNuevoObjeto$ = 8
lpszNombre$ = 256
lpszApellidos$ = 264
?PersonaConstructorBebe@@YAPEAUCPersona@@PEAD0@Z PROC	; PersonaConstructorBebe, COMDAT

; 72   : {

$LN3:
  00000	48 89 54 24 10	 mov	 QWORD PTR [rsp+16], rdx
  00005	48 89 4c 24 08	 mov	 QWORD PTR [rsp+8], rcx
  0000a	55		 push	 rbp
  0000b	57		 push	 rdi
  0000c	48 81 ec 08 01
	00 00		 sub	 rsp, 264		; 00000108H
  00013	48 8d 6c 24 20	 lea	 rbp, QWORD PTR [rsp+32]
  00018	48 8d 0d 00 00
	00 00		 lea	 rcx, OFFSET FLAT:__12060E09_MarSalud@cpp
  0001f	e8 00 00 00 00	 call	 __CheckForDebuggerJustMyCode

; 73   :     CPersonaPtr pNuevoObjeto = NULL;

  00024	48 c7 45 08 00
	00 00 00	 mov	 QWORD PTR pNuevoObjeto$[rbp], 0

; 74   : 
; 75   :     //Llamar al constructor por defecto:
; 76   :     pNuevoObjeto = PersonaDefaultConstructor();

  0002c	e8 00 00 00 00	 call	 ?PersonaDefaultConstructor@@YAPEAUCPersona@@XZ ; PersonaDefaultConstructor
  00031	48 89 45 08	 mov	 QWORD PTR pNuevoObjeto$[rbp], rax

; 77   : 
; 78   :     //Cargar valores de nombre y apellidos:
; 79   :     strcpy(pNuevoObjeto->m_szNombre, lpszNombre);

  00035	48 8b 45 08	 mov	 rax, QWORD PTR pNuevoObjeto$[rbp]
  00039	48 05 c4 00 00
	00		 add	 rax, 196		; 000000c4H
  0003f	48 8b 95 00 01
	00 00		 mov	 rdx, QWORD PTR lpszNombre$[rbp]
  00046	48 8b c8	 mov	 rcx, rax
  00049	e8 00 00 00 00	 call	 strcpy

; 80   :     strcpy(pNuevoObjeto->m_szApellidos, lpszApellidos);

  0004e	48 8b 45 08	 mov	 rax, QWORD PTR pNuevoObjeto$[rbp]
  00052	48 05 00 01 00
	00		 add	 rax, 256		; 00000100H
  00058	48 8b 95 08 01
	00 00		 mov	 rdx, QWORD PTR lpszApellidos$[rbp]
  0005f	48 8b c8	 mov	 rcx, rax
  00062	e8 00 00 00 00	 call	 strcpy

; 81   : 
; 82   :     return pNuevoObjeto;

  00067	48 8b 45 08	 mov	 rax, QWORD PTR pNuevoObjeto$[rbp]

; 83   : }

  0006b	48 8d a5 e8 00
	00 00		 lea	 rsp, QWORD PTR [rbp+232]
  00072	5f		 pop	 rdi
  00073	5d		 pop	 rbp
  00074	c3		 ret	 0
?PersonaConstructorBebe@@YAPEAUCPersona@@PEAD0@Z ENDP	; PersonaConstructorBebe
_TEXT	ENDS
; Function compile flags: /Odtp /RTCsu /ZI
; File D:\Develop\Marcombo\MarSalud\MarSalud\MarSalud.cpp
;	COMDAT ?PersonaDefaultConstructor@@YAPEAUCPersona@@XZ
_TEXT	SEGMENT
pNuevoObjeto$ = 8
?PersonaDefaultConstructor@@YAPEAUCPersona@@XZ PROC	; PersonaDefaultConstructor, COMDAT

; 58   : {

$LN3:
  00000	40 55		 push	 rbp
  00002	57		 push	 rdi
  00003	48 81 ec 08 01
	00 00		 sub	 rsp, 264		; 00000108H
  0000a	48 8d 6c 24 20	 lea	 rbp, QWORD PTR [rsp+32]
  0000f	48 8d 0d 00 00
	00 00		 lea	 rcx, OFFSET FLAT:__12060E09_MarSalud@cpp
  00016	e8 00 00 00 00	 call	 __CheckForDebuggerJustMyCode

; 59   :     CPersonaPtr pNuevoObjeto = NULL;

  0001b	48 c7 45 08 00
	00 00 00	 mov	 QWORD PTR pNuevoObjeto$[rbp], 0

; 60   : 
; 61   :     pNuevoObjeto = (CPersonaPtr)malloc(sizeof(CPersona));

  00023	b9 d8 03 00 00	 mov	 ecx, 984		; 000003d8H
  00028	ff 15 00 00 00
	00		 call	 QWORD PTR __imp_malloc
  0002e	48 89 45 08	 mov	 QWORD PTR pNuevoObjeto$[rbp], rax

; 62   : 
; 63   :     //Poner a cero todo el objeto:
; 64   :     memset(pNuevoObjeto, 0, sizeof(CPersona));

  00032	41 b8 d8 03 00
	00		 mov	 r8d, 984		; 000003d8H
  00038	33 d2		 xor	 edx, edx
  0003a	48 8b 4d 08	 mov	 rcx, QWORD PTR pNuevoObjeto$[rbp]
  0003e	e8 00 00 00 00	 call	 memset

; 65   :     pNuevoObjeto->m_this = pNuevoObjeto;

  00043	48 8b 45 08	 mov	 rax, QWORD PTR pNuevoObjeto$[rbp]
  00047	48 8b 4d 08	 mov	 rcx, QWORD PTR pNuevoObjeto$[rbp]
  0004b	48 89 08	 mov	 QWORD PTR [rax], rcx

; 66   : 
; 67   :     return pNuevoObjeto;

  0004e	48 8b 45 08	 mov	 rax, QWORD PTR pNuevoObjeto$[rbp]

; 68   : }

  00052	48 8d a5 e8 00
	00 00		 lea	 rsp, QWORD PTR [rbp+232]
  00059	5f		 pop	 rdi
  0005a	5d		 pop	 rbp
  0005b	c3		 ret	 0
?PersonaDefaultConstructor@@YAPEAUCPersona@@XZ ENDP	; PersonaDefaultConstructor
_TEXT	ENDS
; Function compile flags: /Odtp /RTCsu /ZI
; File D:\Develop\Marcombo\MarSalud\MarSalud\MarSalud.cpp
;	COMDAT ?__empty_global_delete@@YAXPEAX_K@Z
_TEXT	SEGMENT
__formal$ = 224
__formal$ = 232
?__empty_global_delete@@YAXPEAX_K@Z PROC		; __empty_global_delete, COMDAT

$LN3:
  00000	48 89 54 24 10	 mov	 QWORD PTR [rsp+16], rdx
  00005	48 89 4c 24 08	 mov	 QWORD PTR [rsp+8], rcx
  0000a	55		 push	 rbp
  0000b	57		 push	 rdi
  0000c	48 81 ec e8 00
	00 00		 sub	 rsp, 232		; 000000e8H
  00013	48 8d 6c 24 20	 lea	 rbp, QWORD PTR [rsp+32]
  00018	48 8d 0d 00 00
	00 00		 lea	 rcx, OFFSET FLAT:__12060E09_MarSalud@cpp
  0001f	e8 00 00 00 00	 call	 __CheckForDebuggerJustMyCode
  00024	48 8d a5 c8 00
	00 00		 lea	 rsp, QWORD PTR [rbp+200]
  0002b	5f		 pop	 rdi
  0002c	5d		 pop	 rbp
  0002d	c3		 ret	 0
?__empty_global_delete@@YAXPEAX_K@Z ENDP		; __empty_global_delete
_TEXT	ENDS
; Function compile flags: /Odtp /RTCsu /ZI
; File D:\Develop\Marcombo\MarSalud\MarSalud\MarSalud.cpp
;	COMDAT ?__empty_global_delete@@YAXPEAX@Z
_TEXT	SEGMENT
__formal$ = 224
?__empty_global_delete@@YAXPEAX@Z PROC			; __empty_global_delete, COMDAT

$LN3:
  00000	48 89 4c 24 08	 mov	 QWORD PTR [rsp+8], rcx
  00005	55		 push	 rbp
  00006	57		 push	 rdi
  00007	48 81 ec e8 00
	00 00		 sub	 rsp, 232		; 000000e8H
  0000e	48 8d 6c 24 20	 lea	 rbp, QWORD PTR [rsp+32]
  00013	48 8d 0d 00 00
	00 00		 lea	 rcx, OFFSET FLAT:__12060E09_MarSalud@cpp
  0001a	e8 00 00 00 00	 call	 __CheckForDebuggerJustMyCode
  0001f	48 8d a5 c8 00
	00 00		 lea	 rsp, QWORD PTR [rbp+200]
  00026	5f		 pop	 rdi
  00027	5d		 pop	 rbp
  00028	c3		 ret	 0
?__empty_global_delete@@YAXPEAX@Z ENDP			; __empty_global_delete
_TEXT	ENDS
END
