; Listing generated by Microsoft (R) Optimizing Compiler Version 19.37.32824.0 

include listing.inc

INCLUDELIB MSVCRTD
INCLUDELIB OLDNAMES

msvcjmc	SEGMENT
__2972590E_concurrencysal@h DB 01H
__196CC136_sal@h DB 01H
__C395F66A_vadefs@h DB 01H
__D5C25611_vcruntime@h DB 01H
__311F130C_xkeycheck@h DB 01H
__AEBEEEE9_yvals_core@h DB 01H
__05EEB633_limits@h DB 01H
__7CE37BCF_climits DB 01H
__1B0272D9_corecrt@h DB 01H
__D5F74309_vcruntime_new@h DB 01H
__ED298667_vcruntime_new_debug@h DB 01H
__935DC21B_crtdbg@h DB 01H
__B40C025A_crtdefs@h DB 01H
__97CA0262_use_ansi@h DB 01H
__4E4CEF82_yvals@h DB 01H
__BB16330F_corecrt_math@h DB 01H
__3BF2A406_math@h DB 01H
__45DED006_corecrt_malloc@h DB 01H
__13F5961F_stddef@h DB 01H
__FD6DBD68_corecrt_search@h DB 01H
__E2E33A61_corecrt_wstdlib@h DB 01H
__6E5ACABA_stdlib@h DB 01H
__F80C593D_cstdlib DB 01H
__6CC4302B_xtr1common DB 01H
__7178C802_intrin0@inl@h DB 01H
__AD21BB51_intrin0@h DB 01H
__7BD6CF81_cmath DB 01H
__44420885_corecrt_stdio_config@h DB 01H
__AB601D8D_corecrt_wstdio@h DB 01H
__C1EC35D3_stdio@h DB 01H
__FAE305CF_cstdio DB 01H
__61CC25A1_errno@h DB 01H
__4BC88476_vcruntime_string@h DB 01H
__E4C945B4_corecrt_memcpy_s@h DB 01H
__8EAFF484_corecrt_memory@h DB 01H
__6490AEC5_corecrt_wstring@h DB 01H
__E8295E1E_string@h DB 01H
__B49EF1DD_cstring DB 01H
__EF1F6BBA_corecrt_wconio@h DB 01H
__74484FB3_corecrt_wctype@h DB 01H
__3D1D430C_corecrt_wdirect@h DB 01H
__8ECB7138_corecrt_share@h DB 01H
__DB7FEBA6_corecrt_wio@h DB 01H
__9A9F0068_corecrt_wprocess@h DB 01H
__369A9BC3_corecrt_wtime@h DB 01H
__CE789B9D_types@h DB 01H
__9901C817_stat@h DB 01H
__3FCAD62E_wchar@h DB 01H
__6068D39C_cwchar DB 01H
__23A856AA_iosfwd DB 01H
__5DC78390_cstddef DB 01H
__33B42F3D_initializer_list DB 01H
__BB98980C_stdint@h DB 01H
__4552B840_cstdint DB 01H
__7FB6D5C7_type_traits DB 01H
__CF01DCB6_utility DB 01H
__12DC71E1___msvc_iter_core@hpp DB 01H
__D740E0F1_xutility DB 01H
__C6EC57B1_iterator DB 01H
__F7972D0B_share@h DB 01H
__3D410F40___msvc_system_error_abi@hpp DB 01H
__67C27134_cerrno DB 01H
__FA77ED4C_malloc@h DB 01H
__89766DA4_corecrt_terminate@h DB 01H
__27A4BD10_eh@h DB 01H
__E5C78335_vcruntime_exception@h DB 01H
__7C536CCC_exception DB 01H
__B9985323_float@h DB 01H
__89A7CE48_cfloat DB 01H
__98438E05_isa_availability@h DB 01H
__EF41832C_limits DB 01H
__0DB0C2E5_new DB 01H
__765FE01A_xatomic@h DB 01H
__A594BF75_xmemory DB 01H
__DFFCB714___msvc_sanitizer_annotate_container@hpp DB 01H
__D14739E9_xstring DB 01H
__F51D5691_stdexcept DB 01H
__ED2630B9_xcall_once@h DB 01H
__E6D9FA8D_xerrc@h DB 01H
__0A9237D2_time@h DB 01H
__BD655389_ctime DB 01H
__618403B0_xtimec@h DB 01H
__F68435D1_xthreads@h DB 01H
__8474DFEE_atomic DB 01H
__527B2299_system_error DB 01H
__0632977E_vcruntime_typeinfo@h DB 01H
__A79F13E8_typeinfo DB 01H
__53EF8FA2_memory DB 01H
__7FAAD8AD_xfacet DB 01H
__53FF2065___msvc_xlocinfo_types@hpp DB 01H
__1EC467ED_ctype@h DB 01H
__F528E268_cctype DB 01H
__791C33B7_locale@h DB 01H
__6BA085EC_clocale DB 01H
__B816F020_xlocinfo DB 01H
__0E794DD8_xlocale DB 01H
__81F38733_xiosbase DB 01H
__F7BDEE2D_streambuf DB 01H
__90FE2BCF_xlocnum DB 01H
__F57DF8F3_ios DB 01H
__1D69971C_ostream DB 01H
__7EB9A226_istream DB 01H
__B5399AEE_iostream DB 01H
__1F2E278C_TiposForward@h DB 01H
__96A9FD24_Persona@h DB 01H
__229D2084_Modelo@h DB 01H
__7B1C2AE8_Doctor@h DB 01H
__7B62D4C3_MarSalud@h DB 01H
__17EEB831_Modelo@cpp DB 01H
msvcjmc	ENDS
PUBLIC	?__empty_global_delete@@YAXPEAX@Z		; __empty_global_delete
PUBLIC	?__empty_global_delete@@YAXPEAX_K@Z		; __empty_global_delete
PUBLIC	__local_stdio_printf_options
PUBLIC	_vfprintf_l
PUBLIC	printf
PUBLIC	?BuscarModelo@@YAPEAUCModelo@@PEAU1@PEAD@Z	; BuscarModelo
PUBLIC	?FindLastModelo@@YAPEAUCModelo@@PEAU1@@Z	; FindLastModelo
PUBLIC	?InsertarModelo@@YA_NPEAUCModelo@@0@Z		; InsertarModelo
PUBLIC	?ListarModelos@@YAXPEAX@Z			; ListarModelos
PUBLIC	__JustMyCode_Default
PUBLIC	?_OptionsStorage@?1??__local_stdio_printf_options@@9@4_KA ; `__local_stdio_printf_options'::`2'::_OptionsStorage
PUBLIC	??_C@_0BP@EFGLKOLG@?6NOMBRE?5DE?5MODELO?7?5INSTANCIAS?6@ ; `string'
PUBLIC	??_C@_0CF@MLCIJBNO@?9?9?9?9?9?9?9?9?9?9?9?9?9?9?9?9?9?9?9?9?9?9?9?9?9?9?9?9?9?9?9@ ; `string'
PUBLIC	??_C@_0BP@CLGLHBGB@No?5hay?5modelos?5ni?5instancias?4?6@ ; `string'
PUBLIC	??_C@_09JIAEHHLM@?$CFs?7?7?5?$CF6d?6@		; `string'
PUBLIC	??_C@_0BB@LHNGIGKD@Fin?5de?5listado?4?6@	; `string'
EXTRN	__imp___acrt_iob_func:PROC
EXTRN	__imp___stdio_common_vfprintf:PROC
EXTRN	strcmp:PROC
EXTRN	_RTC_CheckStackVars:PROC
EXTRN	_RTC_InitBase:PROC
EXTRN	_RTC_Shutdown:PROC
EXTRN	__CheckForDebuggerJustMyCode:PROC
EXTRN	__GSHandlerCheck:PROC
EXTRN	__security_check_cookie:PROC
EXTRN	?_pListaModelos@@3PEAXEA:QWORD			; _pListaModelos
EXTRN	__security_cookie:QWORD
;	COMDAT ?_OptionsStorage@?1??__local_stdio_printf_options@@9@4_KA
_BSS	SEGMENT
?_OptionsStorage@?1??__local_stdio_printf_options@@9@4_KA DQ 01H DUP (?) ; `__local_stdio_printf_options'::`2'::_OptionsStorage
_BSS	ENDS
;	COMDAT pdata
pdata	SEGMENT
$pdata$?__empty_global_delete@@YAXPEAX@Z DD imagerel $LN3
	DD	imagerel $LN3+41
	DD	imagerel $unwind$?__empty_global_delete@@YAXPEAX@Z
pdata	ENDS
;	COMDAT pdata
pdata	SEGMENT
$pdata$?__empty_global_delete@@YAXPEAX_K@Z DD imagerel $LN3
	DD	imagerel $LN3+46
	DD	imagerel $unwind$?__empty_global_delete@@YAXPEAX_K@Z
pdata	ENDS
;	COMDAT pdata
pdata	SEGMENT
$pdata$__local_stdio_printf_options DD imagerel $LN3
	DD	imagerel $LN3+44
	DD	imagerel $unwind$__local_stdio_printf_options
pdata	ENDS
;	COMDAT pdata
pdata	SEGMENT
$pdata$_vfprintf_l DD imagerel $LN3
	DD	imagerel $LN3+103
	DD	imagerel $unwind$_vfprintf_l
pdata	ENDS
;	COMDAT pdata
pdata	SEGMENT
$pdata$printf DD imagerel $LN3
	DD	imagerel $LN3+191
	DD	imagerel $unwind$printf
pdata	ENDS
;	COMDAT pdata
pdata	SEGMENT
$pdata$?BuscarModelo@@YAPEAUCModelo@@PEAU1@PEAD@Z DD imagerel $LN8
	DD	imagerel $LN8+157
	DD	imagerel $unwind$?BuscarModelo@@YAPEAUCModelo@@PEAU1@PEAD@Z
pdata	ENDS
;	COMDAT pdata
pdata	SEGMENT
$pdata$?FindLastModelo@@YAPEAUCModelo@@PEAU1@@Z DD imagerel $LN5
	DD	imagerel $LN5+87
	DD	imagerel $unwind$?FindLastModelo@@YAPEAUCModelo@@PEAU1@@Z
pdata	ENDS
;	COMDAT pdata
pdata	SEGMENT
$pdata$?InsertarModelo@@YA_NPEAUCModelo@@0@Z DD imagerel $LN7
	DD	imagerel $LN7+264
	DD	imagerel $unwind$?InsertarModelo@@YA_NPEAUCModelo@@0@Z
pdata	ENDS
;	COMDAT pdata
pdata	SEGMENT
$pdata$?ListarModelos@@YAXPEAX@Z DD imagerel $LN6
	DD	imagerel $LN6+165
	DD	imagerel $unwind$?ListarModelos@@YAXPEAX@Z
pdata	ENDS
;	COMDAT rtc$TMZ
rtc$TMZ	SEGMENT
_RTC_Shutdown.rtc$TMZ DQ FLAT:_RTC_Shutdown
rtc$TMZ	ENDS
;	COMDAT rtc$IMZ
rtc$IMZ	SEGMENT
_RTC_InitBase.rtc$IMZ DQ FLAT:_RTC_InitBase
rtc$IMZ	ENDS
;	COMDAT ??_C@_0BB@LHNGIGKD@Fin?5de?5listado?4?6@
CONST	SEGMENT
??_C@_0BB@LHNGIGKD@Fin?5de?5listado?4?6@ DB 'Fin de listado.', 0aH, 00H ; `string'
CONST	ENDS
;	COMDAT ??_C@_09JIAEHHLM@?$CFs?7?7?5?$CF6d?6@
CONST	SEGMENT
??_C@_09JIAEHHLM@?$CFs?7?7?5?$CF6d?6@ DB '%s', 09H, 09H, ' %6d', 0aH, 00H ; `string'
CONST	ENDS
;	COMDAT ??_C@_0BP@CLGLHBGB@No?5hay?5modelos?5ni?5instancias?4?6@
CONST	SEGMENT
??_C@_0BP@CLGLHBGB@No?5hay?5modelos?5ni?5instancias?4?6@ DB 'No hay model'
	DB	'os ni instancias.', 0aH, 00H		; `string'
CONST	ENDS
;	COMDAT ??_C@_0CF@MLCIJBNO@?9?9?9?9?9?9?9?9?9?9?9?9?9?9?9?9?9?9?9?9?9?9?9?9?9?9?9?9?9?9?9@
CONST	SEGMENT
??_C@_0CF@MLCIJBNO@?9?9?9?9?9?9?9?9?9?9?9?9?9?9?9?9?9?9?9?9?9?9?9?9?9?9?9?9?9?9?9@ DB '-'
	DB	'----------------------------------', 0aH, 00H ; `string'
CONST	ENDS
;	COMDAT ??_C@_0BP@EFGLKOLG@?6NOMBRE?5DE?5MODELO?7?5INSTANCIAS?6@
CONST	SEGMENT
??_C@_0BP@EFGLKOLG@?6NOMBRE?5DE?5MODELO?7?5INSTANCIAS?6@ DB 0aH, 'NOMBRE '
	DB	'DE MODELO', 09H, ' INSTANCIAS', 0aH, 00H	; `string'
CONST	ENDS
;	COMDAT xdata
xdata	SEGMENT
$unwind$?ListarModelos@@YAXPEAX@Z DD 025051301H
	DD	010e2313H
	DD	070070025H
	DD	05006H
xdata	ENDS
;	COMDAT xdata
xdata	SEGMENT
$unwind$?InsertarModelo@@YA_NPEAUCModelo@@0@Z DD 025051801H
	DD	01132318H
	DD	0700c0029H
	DD	0500bH
xdata	ENDS
;	COMDAT xdata
xdata	SEGMENT
$unwind$?FindLastModelo@@YAPEAUCModelo@@PEAU1@@Z DD 025051301H
	DD	010e2313H
	DD	070070021H
	DD	05006H
xdata	ENDS
;	COMDAT xdata
xdata	SEGMENT
$unwind$?BuscarModelo@@YAPEAUCModelo@@PEAU1@PEAD@Z DD 025051801H
	DD	01132318H
	DD	0700c0029H
	DD	0500bH
xdata	ENDS
;	COMDAT voltbl
voltbl	SEGMENT
_volmd	DB	045H
	DB	0a6H
voltbl	ENDS
;	COMDAT xdata
xdata	SEGMENT
$unwind$printf DD 025054c19H
	DD	011d2322H
	DD	070160029H
	DD	05015H
	DD	imagerel __GSHandlerCheck
	DD	0138H
xdata	ENDS
;	COMDAT CONST
CONST	SEGMENT
printf$rtcName$0 DB 05fH
	DB	041H
	DB	072H
	DB	067H
	DB	04cH
	DB	069H
	DB	073H
	DB	074H
	DB	00H
	ORG $+7
printf$rtcVarDesc DD 048H
	DD	08H
	DQ	FLAT:printf$rtcName$0
	ORG $+48
printf$rtcFrameData DD 01H
	DD	00H
	DQ	FLAT:printf$rtcVarDesc
CONST	ENDS
;	COMDAT xdata
xdata	SEGMENT
$unwind$_vfprintf_l DD 035052201H
	DD	011d3322H
	DD	07016001fH
	DD	05015H
xdata	ENDS
;	COMDAT xdata
xdata	SEGMENT
$unwind$__local_stdio_printf_options DD 025050f01H
	DD	010a230fH
	DD	07003001dH
	DD	05002H
xdata	ENDS
;	COMDAT xdata
xdata	SEGMENT
$unwind$?__empty_global_delete@@YAXPEAX_K@Z DD 025051801H
	DD	01132318H
	DD	0700c001dH
	DD	0500bH
xdata	ENDS
;	COMDAT xdata
xdata	SEGMENT
$unwind$?__empty_global_delete@@YAXPEAX@Z DD 025051301H
	DD	010e2313H
	DD	07007001dH
	DD	05006H
xdata	ENDS
; Function compile flags: /Odt
;	COMDAT __JustMyCode_Default
_TEXT	SEGMENT
__JustMyCode_Default PROC				; COMDAT
	ret	0
__JustMyCode_Default ENDP
_TEXT	ENDS
; Function compile flags: /Odtp /RTCsu /ZI
; File D:\Develop\Marcombo\MarSalud\MarSalud\Modelo.cpp
;	COMDAT ?ListarModelos@@YAXPEAX@Z
_TEXT	SEGMENT
pCursor$ = 8
nModelos$ = 36
pInicio$ = 288
?ListarModelos@@YAXPEAX@Z PROC				; ListarModelos, COMDAT

; 44   : {

$LN6:
	mov	QWORD PTR [rsp+8], rcx
	push	rbp
	push	rdi
	sub	rsp, 296				; 00000128H
	lea	rbp, QWORD PTR [rsp+32]
	lea	rcx, OFFSET FLAT:__17EEB831_Modelo@cpp
	call	__CheckForDebuggerJustMyCode

; 45   :     CModeloPtr pCursor = (CModeloPtr)pInicio;

	mov	rax, QWORD PTR pInicio$[rbp]
	mov	QWORD PTR pCursor$[rbp], rax

; 46   :     int nModelos = 0;

	mov	DWORD PTR nModelos$[rbp], 0

; 47   :     printf("\nNOMBRE DE MODELO\t INSTANCIAS\n");

	lea	rcx, OFFSET FLAT:??_C@_0BP@EFGLKOLG@?6NOMBRE?5DE?5MODELO?7?5INSTANCIAS?6@
	call	printf

; 48   :     printf("-----------------------------------\n");

	lea	rcx, OFFSET FLAT:??_C@_0CF@MLCIJBNO@?9?9?9?9?9?9?9?9?9?9?9?9?9?9?9?9?9?9?9?9?9?9?9?9?9?9?9?9?9?9?9@
	call	printf

; 49   :     if (!pCursor)

	cmp	QWORD PTR pCursor$[rbp], 0
	jne	SHORT $LN4@ListarMode

; 50   :     {
; 51   :         printf("No hay modelos ni instancias.\n");

	lea	rcx, OFFSET FLAT:??_C@_0BP@CLGLHBGB@No?5hay?5modelos?5ni?5instancias?4?6@
	call	printf
$LN4@ListarMode:
$LN2@ListarMode:

; 52   :     }
; 53   :     while (pCursor)

	cmp	QWORD PTR pCursor$[rbp], 0
	je	SHORT $LN3@ListarMode

; 54   :     {
; 55   :         printf("%s\t\t %6d\n", pCursor->m_szRuntimeClassName, pCursor->m_nContador);

	mov	rax, QWORD PTR pCursor$[rbp]
	mov	rcx, QWORD PTR pCursor$[rbp]
	mov	r8d, DWORD PTR [rcx+100]
	mov	rdx, rax
	lea	rcx, OFFSET FLAT:??_C@_09JIAEHHLM@?$CFs?7?7?5?$CF6d?6@
	call	printf

; 56   :         pCursor = pCursor->m_pNext;

	mov	rax, QWORD PTR pCursor$[rbp]
	mov	rax, QWORD PTR [rax+1096]
	mov	QWORD PTR pCursor$[rbp], rax

; 57   :     }

	jmp	SHORT $LN2@ListarMode
$LN3@ListarMode:

; 58   :     printf("Fin de listado.\n");

	lea	rcx, OFFSET FLAT:??_C@_0BB@LHNGIGKD@Fin?5de?5listado?4?6@
	call	printf

; 59   : }

	lea	rsp, QWORD PTR [rbp+264]
	pop	rdi
	pop	rbp
	ret	0
?ListarModelos@@YAXPEAX@Z ENDP				; ListarModelos
_TEXT	ENDS
; Function compile flags: /Odtp /RTCsu /ZI
; File D:\Develop\Marcombo\MarSalud\MarSalud\Modelo.cpp
;	COMDAT ?InsertarModelo@@YA_NPEAUCModelo@@0@Z
_TEXT	SEGMENT
bOK$ = 4
pFoundModelo$ = 40
pUltimoModelo$ = 72
pListaModelos$ = 320
pModeloAInsertar$ = 328
?InsertarModelo@@YA_NPEAUCModelo@@0@Z PROC		; InsertarModelo, COMDAT

; 62   : {

$LN7:
	mov	QWORD PTR [rsp+16], rdx
	mov	QWORD PTR [rsp+8], rcx
	push	rbp
	push	rdi
	sub	rsp, 328				; 00000148H
	lea	rbp, QWORD PTR [rsp+32]
	lea	rcx, OFFSET FLAT:__17EEB831_Modelo@cpp
	call	__CheckForDebuggerJustMyCode

; 63   :     bool bOK = false;

	mov	BYTE PTR bOK$[rbp], 0

; 64   :     CModeloPtr pFoundModelo = NULL;

	mov	QWORD PTR pFoundModelo$[rbp], 0

; 65   :     CModeloPtr pUltimoModelo = NULL;

	mov	QWORD PTR pUltimoModelo$[rbp], 0

; 66   : 
; 67   :     pFoundModelo = (CModeloPtr)BuscarModelo(pListaModelos, pModeloAInsertar->m_szRuntimeClassName);

	mov	rax, QWORD PTR pModeloAInsertar$[rbp]
	mov	rdx, rax
	mov	rcx, QWORD PTR pListaModelos$[rbp]
	call	?BuscarModelo@@YAPEAUCModelo@@PEAU1@PEAD@Z ; BuscarModelo
	mov	QWORD PTR pFoundModelo$[rbp], rax

; 68   :     if (!pFoundModelo)

	cmp	QWORD PTR pFoundModelo$[rbp], 0
	jne	$LN2@InsertarMo

; 69   :     {
; 70   :         //Si no ha existido nunca ningún modelo:
; 71   :         if (pListaModelos == NULL)

	cmp	QWORD PTR pListaModelos$[rbp], 0
	jne	SHORT $LN3@InsertarMo

; 72   :         {
; 73   :             pListaModelos = pModeloAInsertar;

	mov	rax, QWORD PTR pModeloAInsertar$[rbp]
	mov	QWORD PTR pListaModelos$[rbp], rax

; 74   :             pListaModelos->m_pNext = NULL;

	mov	rax, QWORD PTR pListaModelos$[rbp]
	mov	QWORD PTR [rax+1096], 0

; 75   :             pListaModelos->m_pPrev = NULL;

	mov	rax, QWORD PTR pListaModelos$[rbp]
	mov	QWORD PTR [rax+1104], 0

; 76   :             _pListaModelos = pListaModelos;

	mov	rax, QWORD PTR pListaModelos$[rbp]
	mov	QWORD PTR ?_pListaModelos@@3PEAXEA, rax	; _pListaModelos

; 77   :             bOK = true;

	mov	BYTE PTR bOK$[rbp], 1

; 78   :         }

	jmp	SHORT $LN4@InsertarMo
$LN3@InsertarMo:

; 79   :         else
; 80   :         {
; 81   :             //Si hay modelos, colocar el nuevo modelo en la última posición de la lista:
; 82   :             pUltimoModelo = (CModeloPtr)FindLastModelo(pListaModelos);

	mov	rcx, QWORD PTR pListaModelos$[rbp]
	call	?FindLastModelo@@YAPEAUCModelo@@PEAU1@@Z ; FindLastModelo
	mov	QWORD PTR pUltimoModelo$[rbp], rax

; 83   :             if (pUltimoModelo)

	cmp	QWORD PTR pUltimoModelo$[rbp], 0
	je	SHORT $LN5@InsertarMo

; 84   :             {
; 85   :                 pUltimoModelo->m_pNext = pModeloAInsertar;

	mov	rax, QWORD PTR pUltimoModelo$[rbp]
	mov	rcx, QWORD PTR pModeloAInsertar$[rbp]
	mov	QWORD PTR [rax+1096], rcx

; 86   :                 pModeloAInsertar->m_pPrev = pUltimoModelo;

	mov	rax, QWORD PTR pModeloAInsertar$[rbp]
	mov	rcx, QWORD PTR pUltimoModelo$[rbp]
	mov	QWORD PTR [rax+1104], rcx

; 87   :                 _pListaModelos = pListaModelos;

	mov	rax, QWORD PTR pListaModelos$[rbp]
	mov	QWORD PTR ?_pListaModelos@@3PEAXEA, rax	; _pListaModelos

; 88   :                 bOK = true;

	mov	BYTE PTR bOK$[rbp], 1
$LN5@InsertarMo:
$LN4@InsertarMo:
$LN2@InsertarMo:

; 89   :             }
; 90   :         }
; 91   :     }
; 92   :     return bOK;

	movzx	eax, BYTE PTR bOK$[rbp]

; 93   : }

	lea	rsp, QWORD PTR [rbp+296]
	pop	rdi
	pop	rbp
	ret	0
?InsertarModelo@@YA_NPEAUCModelo@@0@Z ENDP		; InsertarModelo
_TEXT	ENDS
; Function compile flags: /Odtp /RTCsu /ZI
; File D:\Develop\Marcombo\MarSalud\MarSalud\Modelo.cpp
;	COMDAT ?FindLastModelo@@YAPEAUCModelo@@PEAU1@@Z
_TEXT	SEGMENT
pCursor$ = 8
pInicioModelo$ = 256
?FindLastModelo@@YAPEAUCModelo@@PEAU1@@Z PROC		; FindLastModelo, COMDAT

; 33   : {

$LN5:
	mov	QWORD PTR [rsp+8], rcx
	push	rbp
	push	rdi
	sub	rsp, 264				; 00000108H
	lea	rbp, QWORD PTR [rsp+32]
	lea	rcx, OFFSET FLAT:__17EEB831_Modelo@cpp
	call	__CheckForDebuggerJustMyCode

; 34   :     CModeloPtr pCursor = pInicioModelo;

	mov	rax, QWORD PTR pInicioModelo$[rbp]
	mov	QWORD PTR pCursor$[rbp], rax
$LN2@FindLastMo:

; 35   : 
; 36   :     while (pCursor->m_pNext)

	mov	rax, QWORD PTR pCursor$[rbp]
	cmp	QWORD PTR [rax+1096], 0
	je	SHORT $LN3@FindLastMo

; 37   :     {
; 38   :         pCursor = pCursor->m_pNext;

	mov	rax, QWORD PTR pCursor$[rbp]
	mov	rax, QWORD PTR [rax+1096]
	mov	QWORD PTR pCursor$[rbp], rax

; 39   :     }

	jmp	SHORT $LN2@FindLastMo
$LN3@FindLastMo:

; 40   :     return pCursor;

	mov	rax, QWORD PTR pCursor$[rbp]

; 41   : }

	lea	rsp, QWORD PTR [rbp+232]
	pop	rdi
	pop	rbp
	ret	0
?FindLastModelo@@YAPEAUCModelo@@PEAU1@@Z ENDP		; FindLastModelo
_TEXT	ENDS
; Function compile flags: /Odtp /RTCsu /ZI
; File D:\Develop\Marcombo\MarSalud\MarSalud\Modelo.cpp
;	COMDAT ?BuscarModelo@@YAPEAUCModelo@@PEAU1@PEAD@Z
_TEXT	SEGMENT
pCursor$ = 8
pFoundModelo$ = 40
nComp$ = 68
pListaModelo$ = 320
lpszClassName$ = 328
?BuscarModelo@@YAPEAUCModelo@@PEAU1@PEAD@Z PROC		; BuscarModelo, COMDAT

; 5    : {

$LN8:
	mov	QWORD PTR [rsp+16], rdx
	mov	QWORD PTR [rsp+8], rcx
	push	rbp
	push	rdi
	sub	rsp, 328				; 00000148H
	lea	rbp, QWORD PTR [rsp+32]
	lea	rcx, OFFSET FLAT:__17EEB831_Modelo@cpp
	call	__CheckForDebuggerJustMyCode

; 6    :     CModeloPtr pCursor = pListaModelo;

	mov	rax, QWORD PTR pListaModelo$[rbp]
	mov	QWORD PTR pCursor$[rbp], rax

; 7    :     CModeloPtr pFoundModelo = NULL;

	mov	QWORD PTR pFoundModelo$[rbp], 0

; 8    :     int nComp = 0;

	mov	DWORD PTR nComp$[rbp], 0

; 9    : 
; 10   :     if (pListaModelo)

	cmp	QWORD PTR pListaModelo$[rbp], 0
	je	SHORT $LN4@BuscarMode
$LN2@BuscarMode:

; 11   :     {
; 12   :         while (!pFoundModelo)

	cmp	QWORD PTR pFoundModelo$[rbp], 0
	jne	SHORT $LN3@BuscarMode

; 13   :         {
; 14   :             nComp = strcmp(pCursor->m_szRuntimeClassName, lpszClassName);

	mov	rax, QWORD PTR pCursor$[rbp]
	mov	rdx, QWORD PTR lpszClassName$[rbp]
	mov	rcx, rax
	call	strcmp
	mov	DWORD PTR nComp$[rbp], eax

; 15   :             if (!nComp)

	cmp	DWORD PTR nComp$[rbp], 0
	jne	SHORT $LN5@BuscarMode

; 16   :             {
; 17   :                 //Encontrado: son iguales:
; 18   :                 pFoundModelo = pCursor;

	mov	rax, QWORD PTR pCursor$[rbp]
	mov	QWORD PTR pFoundModelo$[rbp], rax

; 19   :                 break;

	jmp	SHORT $LN3@BuscarMode
$LN5@BuscarMode:

; 20   :             }
; 21   :             pCursor = pCursor->m_pNext;

	mov	rax, QWORD PTR pCursor$[rbp]
	mov	rax, QWORD PTR [rax+1096]
	mov	QWORD PTR pCursor$[rbp], rax

; 22   :             if (!pCursor)

	cmp	QWORD PTR pCursor$[rbp], 0
	jne	SHORT $LN6@BuscarMode

; 23   :             {
; 24   :                 //Final de lista
; 25   :                 break;

	jmp	SHORT $LN3@BuscarMode
$LN6@BuscarMode:

; 26   :             }
; 27   :         }

	jmp	SHORT $LN2@BuscarMode
$LN3@BuscarMode:
$LN4@BuscarMode:

; 28   :     }
; 29   :     return pFoundModelo;

	mov	rax, QWORD PTR pFoundModelo$[rbp]

; 30   : }

	lea	rsp, QWORD PTR [rbp+296]
	pop	rdi
	pop	rbp
	ret	0
?BuscarModelo@@YAPEAUCModelo@@PEAU1@PEAD@Z ENDP		; BuscarModelo
_TEXT	ENDS
; Function compile flags: /Odtp /RTCsu /ZI
; File C:\Program Files (x86)\Windows Kits\10\Include\10.0.22621.0\ucrt\stdio.h
;	COMDAT printf
_TEXT	SEGMENT
_Result$ = 4
_ArgList$ = 40
__$ArrayPad$ = 280
_Format$ = 320
printf	PROC						; COMDAT

; 956  :     {

$LN3:
	mov	QWORD PTR [rsp+8], rcx
	mov	QWORD PTR [rsp+16], rdx
	mov	QWORD PTR [rsp+24], r8
	mov	QWORD PTR [rsp+32], r9
	push	rbp
	push	rdi
	sub	rsp, 328				; 00000148H
	lea	rbp, QWORD PTR [rsp+32]
	lea	rdi, QWORD PTR [rsp+32]
	mov	ecx, 26
	mov	eax, -858993460				; ccccccccH
	rep stosd
	mov	rcx, QWORD PTR [rsp+360]
	mov	rax, QWORD PTR __security_cookie
	xor	rax, rbp
	mov	QWORD PTR __$ArrayPad$[rbp], rax
	lea	rcx, OFFSET FLAT:__C1EC35D3_stdio@h
	call	__CheckForDebuggerJustMyCode

; 957  :         int _Result;
; 958  :         va_list _ArgList;
; 959  :         __crt_va_start(_ArgList, _Format);

	lea	rax, QWORD PTR _Format$[rbp+8]
	mov	QWORD PTR _ArgList$[rbp], rax

; 960  :         _Result = _vfprintf_l(stdout, _Format, NULL, _ArgList);

	mov	ecx, 1
	call	QWORD PTR __imp___acrt_iob_func
	mov	r9, QWORD PTR _ArgList$[rbp]
	xor	r8d, r8d
	mov	rdx, QWORD PTR _Format$[rbp]
	mov	rcx, rax
	call	_vfprintf_l
	mov	DWORD PTR _Result$[rbp], eax

; 961  :         __crt_va_end(_ArgList);

	mov	QWORD PTR _ArgList$[rbp], 0

; 962  :         return _Result;

	mov	eax, DWORD PTR _Result$[rbp]

; 963  :     }

	mov	edi, eax
	lea	rcx, QWORD PTR [rbp-32]
	lea	rdx, OFFSET FLAT:printf$rtcFrameData
	call	_RTC_CheckStackVars
	mov	eax, edi
	mov	rcx, QWORD PTR __$ArrayPad$[rbp]
	xor	rcx, rbp
	call	__security_check_cookie
	lea	rsp, QWORD PTR [rbp+296]
	pop	rdi
	pop	rbp
	ret	0
printf	ENDP
_TEXT	ENDS
; Function compile flags: /Odtp /RTCsu /ZI
; File C:\Program Files (x86)\Windows Kits\10\Include\10.0.22621.0\ucrt\stdio.h
;	COMDAT _vfprintf_l
_TEXT	SEGMENT
_Stream$ = 224
_Format$ = 232
_Locale$ = 240
_ArgList$ = 248
_vfprintf_l PROC					; COMDAT

; 644  :     {

$LN3:
	mov	QWORD PTR [rsp+32], r9
	mov	QWORD PTR [rsp+24], r8
	mov	QWORD PTR [rsp+16], rdx
	mov	QWORD PTR [rsp+8], rcx
	push	rbp
	push	rdi
	sub	rsp, 248				; 000000f8H
	lea	rbp, QWORD PTR [rsp+48]
	lea	rcx, OFFSET FLAT:__C1EC35D3_stdio@h
	call	__CheckForDebuggerJustMyCode

; 645  :         return __stdio_common_vfprintf(_CRT_INTERNAL_LOCAL_PRINTF_OPTIONS, _Stream, _Format, _Locale, _ArgList);

	call	__local_stdio_printf_options
	mov	rcx, QWORD PTR _ArgList$[rbp]
	mov	QWORD PTR [rsp+32], rcx
	mov	r9, QWORD PTR _Locale$[rbp]
	mov	r8, QWORD PTR _Format$[rbp]
	mov	rdx, QWORD PTR _Stream$[rbp]
	mov	rcx, QWORD PTR [rax]
	call	QWORD PTR __imp___stdio_common_vfprintf

; 646  :     }

	lea	rsp, QWORD PTR [rbp+200]
	pop	rdi
	pop	rbp
	ret	0
_vfprintf_l ENDP
_TEXT	ENDS
; Function compile flags: /Odtp /RTCsu /ZI
; File C:\Program Files (x86)\Windows Kits\10\Include\10.0.22621.0\ucrt\corecrt_stdio_config.h
;	COMDAT __local_stdio_printf_options
_TEXT	SEGMENT
__local_stdio_printf_options PROC			; COMDAT

; 90   :     {

$LN3:
	push	rbp
	push	rdi
	sub	rsp, 232				; 000000e8H
	lea	rbp, QWORD PTR [rsp+32]
	lea	rcx, OFFSET FLAT:__44420885_corecrt_stdio_config@h
	call	__CheckForDebuggerJustMyCode

; 91   :         static unsigned __int64 _OptionsStorage;
; 92   :         return &_OptionsStorage;

	lea	rax, OFFSET FLAT:?_OptionsStorage@?1??__local_stdio_printf_options@@9@4_KA ; `__local_stdio_printf_options'::`2'::_OptionsStorage

; 93   :     }

	lea	rsp, QWORD PTR [rbp+200]
	pop	rdi
	pop	rbp
	ret	0
__local_stdio_printf_options ENDP
_TEXT	ENDS
; Function compile flags: /Odtp /RTCsu /ZI
; File D:\Develop\Marcombo\MarSalud\MarSalud\Modelo.cpp
;	COMDAT ?__empty_global_delete@@YAXPEAX_K@Z
_TEXT	SEGMENT
__formal$ = 224
__formal$ = 232
?__empty_global_delete@@YAXPEAX_K@Z PROC		; __empty_global_delete, COMDAT

$LN3:
	mov	QWORD PTR [rsp+16], rdx
	mov	QWORD PTR [rsp+8], rcx
	push	rbp
	push	rdi
	sub	rsp, 232				; 000000e8H
	lea	rbp, QWORD PTR [rsp+32]
	lea	rcx, OFFSET FLAT:__17EEB831_Modelo@cpp
	call	__CheckForDebuggerJustMyCode
	lea	rsp, QWORD PTR [rbp+200]
	pop	rdi
	pop	rbp
	ret	0
?__empty_global_delete@@YAXPEAX_K@Z ENDP		; __empty_global_delete
_TEXT	ENDS
; Function compile flags: /Odtp /RTCsu /ZI
; File D:\Develop\Marcombo\MarSalud\MarSalud\Modelo.cpp
;	COMDAT ?__empty_global_delete@@YAXPEAX@Z
_TEXT	SEGMENT
__formal$ = 224
?__empty_global_delete@@YAXPEAX@Z PROC			; __empty_global_delete, COMDAT

$LN3:
	mov	QWORD PTR [rsp+8], rcx
	push	rbp
	push	rdi
	sub	rsp, 232				; 000000e8H
	lea	rbp, QWORD PTR [rsp+32]
	lea	rcx, OFFSET FLAT:__17EEB831_Modelo@cpp
	call	__CheckForDebuggerJustMyCode
	lea	rsp, QWORD PTR [rbp+200]
	pop	rdi
	pop	rbp
	ret	0
?__empty_global_delete@@YAXPEAX@Z ENDP			; __empty_global_delete
_TEXT	ENDS
END
