; Listing generated by Microsoft (R) Optimizing Compiler Version 19.37.32824.0 

include listing.inc

INCLUDELIB MSVCRTD
INCLUDELIB OLDNAMES

msvcjmc	SEGMENT
__2972590E_concurrencysal@h DB 01H
__196CC136_sal@h DB 01H
__C395F66A_vadefs@h DB 01H
__D5C25611_vcruntime@h DB 01H
__311F130C_xkeycheck@h DB 01H
__AEBEEEE9_yvals_core@h DB 01H
__05EEB633_limits@h DB 01H
__7CE37BCF_climits DB 01H
__1B0272D9_corecrt@h DB 01H
__D5F74309_vcruntime_new@h DB 01H
__ED298667_vcruntime_new_debug@h DB 01H
__935DC21B_crtdbg@h DB 01H
__B40C025A_crtdefs@h DB 01H
__97CA0262_use_ansi@h DB 01H
__4E4CEF82_yvals@h DB 01H
__BB16330F_corecrt_math@h DB 01H
__3BF2A406_math@h DB 01H
__45DED006_corecrt_malloc@h DB 01H
__13F5961F_stddef@h DB 01H
__FD6DBD68_corecrt_search@h DB 01H
__E2E33A61_corecrt_wstdlib@h DB 01H
__6E5ACABA_stdlib@h DB 01H
__F80C593D_cstdlib DB 01H
__6CC4302B_xtr1common DB 01H
__7178C802_intrin0@inl@h DB 01H
__AD21BB51_intrin0@h DB 01H
__7BD6CF81_cmath DB 01H
__44420885_corecrt_stdio_config@h DB 01H
__AB601D8D_corecrt_wstdio@h DB 01H
__C1EC35D3_stdio@h DB 01H
__FAE305CF_cstdio DB 01H
__61CC25A1_errno@h DB 01H
__4BC88476_vcruntime_string@h DB 01H
__E4C945B4_corecrt_memcpy_s@h DB 01H
__8EAFF484_corecrt_memory@h DB 01H
__6490AEC5_corecrt_wstring@h DB 01H
__E8295E1E_string@h DB 01H
__B49EF1DD_cstring DB 01H
__EF1F6BBA_corecrt_wconio@h DB 01H
__74484FB3_corecrt_wctype@h DB 01H
__3D1D430C_corecrt_wdirect@h DB 01H
__8ECB7138_corecrt_share@h DB 01H
__DB7FEBA6_corecrt_wio@h DB 01H
__9A9F0068_corecrt_wprocess@h DB 01H
__369A9BC3_corecrt_wtime@h DB 01H
__CE789B9D_types@h DB 01H
__9901C817_stat@h DB 01H
__3FCAD62E_wchar@h DB 01H
__6068D39C_cwchar DB 01H
__23A856AA_iosfwd DB 01H
__5DC78390_cstddef DB 01H
__33B42F3D_initializer_list DB 01H
__BB98980C_stdint@h DB 01H
__4552B840_cstdint DB 01H
__7FB6D5C7_type_traits DB 01H
__CF01DCB6_utility DB 01H
__12DC71E1___msvc_iter_core@hpp DB 01H
__D740E0F1_xutility DB 01H
__C6EC57B1_iterator DB 01H
__F7972D0B_share@h DB 01H
__3D410F40___msvc_system_error_abi@hpp DB 01H
__67C27134_cerrno DB 01H
__FA77ED4C_malloc@h DB 01H
__89766DA4_corecrt_terminate@h DB 01H
__27A4BD10_eh@h DB 01H
__E5C78335_vcruntime_exception@h DB 01H
__7C536CCC_exception DB 01H
__B9985323_float@h DB 01H
__89A7CE48_cfloat DB 01H
__98438E05_isa_availability@h DB 01H
__EF41832C_limits DB 01H
__0DB0C2E5_new DB 01H
__765FE01A_xatomic@h DB 01H
__A594BF75_xmemory DB 01H
__DFFCB714___msvc_sanitizer_annotate_container@hpp DB 01H
__D14739E9_xstring DB 01H
__F51D5691_stdexcept DB 01H
__ED2630B9_xcall_once@h DB 01H
__E6D9FA8D_xerrc@h DB 01H
__0A9237D2_time@h DB 01H
__BD655389_ctime DB 01H
__618403B0_xtimec@h DB 01H
__F68435D1_xthreads@h DB 01H
__8474DFEE_atomic DB 01H
__527B2299_system_error DB 01H
__0632977E_vcruntime_typeinfo@h DB 01H
__A79F13E8_typeinfo DB 01H
__53EF8FA2_memory DB 01H
__7FAAD8AD_xfacet DB 01H
__53FF2065___msvc_xlocinfo_types@hpp DB 01H
__1EC467ED_ctype@h DB 01H
__F528E268_cctype DB 01H
__791C33B7_locale@h DB 01H
__6BA085EC_clocale DB 01H
__B816F020_xlocinfo DB 01H
__0E794DD8_xlocale DB 01H
__81F38733_xiosbase DB 01H
__F7BDEE2D_streambuf DB 01H
__90FE2BCF_xlocnum DB 01H
__F57DF8F3_ios DB 01H
__1D69971C_ostream DB 01H
__7EB9A226_istream DB 01H
__B5399AEE_iostream DB 01H
__1F2E278C_TiposForward@h DB 01H
__96A9FD24_Persona@h DB 01H
__229D2084_Modelo@h DB 01H
__418B1E85_Persona@cpp DB 01H
msvcjmc	ENDS
PUBLIC	?__empty_global_delete@@YAXPEAX@Z		; __empty_global_delete
PUBLIC	?__empty_global_delete@@YAXPEAX_K@Z		; __empty_global_delete
PUBLIC	__local_stdio_printf_options
PUBLIC	_vfprintf_l
PUBLIC	printf
PUBLIC	?name@type_info@@QEBAPEBDXZ			; type_info::name
PUBLIC	?PersonaDefaultConstructor@@YAPEAUCPersona@@XZ	; PersonaDefaultConstructor
PUBLIC	?PersonaConstructorBebe@@YAPEAUCPersona@@PEAD0@Z ; PersonaConstructorBebe
PUBLIC	?PersonaConstructorAdulto@@YAPEAUCPersona@@PEAD00@Z ; PersonaConstructorAdulto
PUBLIC	?PersonaDestructor@@YAXPEAUCPersona@@@Z		; PersonaDestructor
PUBLIC	?_new@@YAPEAXPEAUCPersona@@@Z			; _new
PUBLIC	?_delete@@YAXPEAUCPersona@@@Z			; _delete
PUBLIC	?ImprimirFicha@@YAXPEAUCPersona@@@Z		; ImprimirFicha
PUBLIC	__JustMyCode_Default
PUBLIC	?_OptionsStorage@?1??__local_stdio_printf_options@@9@4_KA ; `__local_stdio_printf_options'::`2'::_OptionsStorage
PUBLIC	??_R0?AUCPersona@@@8				; CPersona `RTTI Type Descriptor'
PUBLIC	??_C@_01EEMJAFIK@?6@				; `string'
PUBLIC	??_C@_0BD@MIEJKMDA@FICHA?5DE?5PERSONA?3?6@	; `string'
PUBLIC	??_C@_0BD@JGAJANDI@?9?9?9?9?9?9?9?9?9?9?9?9?9?9?9?9?9?6@ ; `string'
PUBLIC	??_C@_0CC@EEDKFKPA@Direccion?5de?5puntero?5base?3?$CF016z@ ; `string'
PUBLIC	??_C@_0BO@LKKACGMF@CIF?1DNI?1NIE?4?4?4?4?4?4?4?4?4?4?4?4?4?4?3?$CFs?6@ ; `string'
PUBLIC	??_C@_0BO@MKAPGKPG@Nombre?4?4?4?4?4?4?4?4?4?4?4?4?4?4?4?4?4?4?4?3?$CFs?6@ ; `string'
PUBLIC	??_C@_0BO@NLGOMMOP@Apellidos?4?4?4?4?4?4?4?4?4?4?4?4?4?4?4?4?3?$CFs?6@ ; `string'
PUBLIC	??_C@_0BO@LOFCGCDL@Direccion?4?4?4?4?4?4?4?4?4?4?4?4?4?4?4?4?3?$CFs?6@ ; `string'
PUBLIC	??_C@_0BO@JIONGMDC@Cod?4Postal?4?4?4?4?4?4?4?4?4?4?4?4?4?4?4?3?$CFs?6@ ; `string'
PUBLIC	??_C@_0BO@MEHFFPE@Poblacion?4?4?4?4?4?4?4?4?4?4?4?4?4?4?4?4?3?$CFs?6@ ; `string'
PUBLIC	??_C@_0BO@JGKNCML@Telefono?51?4?4?4?4?4?4?4?4?4?4?4?4?4?4?4?3?$CFs?6@ ; `string'
PUBLIC	??_C@_0BO@HCHEFACI@Telefono?52?4?4?4?4?4?4?4?4?4?4?4?4?4?4?4?3?$CFs?6@ ; `string'
PUBLIC	??_C@_0BO@GINHBBBK@Email?4?4?4?4?4?4?4?4?4?4?4?4?4?4?4?4?4?4?4?4?3?$CFs?6@ ; `string'
EXTRN	__imp_free:PROC
EXTRN	__imp_malloc:PROC
EXTRN	__imp___acrt_iob_func:PROC
EXTRN	__imp___stdio_common_vfprintf:PROC
EXTRN	memcpy:PROC
EXTRN	memset:PROC
EXTRN	strcpy:PROC
EXTRN	__std_type_info_name:PROC
EXTRN	?BuscarModelo@@YAPEAUCModelo@@PEAU1@PEAD@Z:PROC	; BuscarModelo
EXTRN	?InsertarModelo@@YA_NPEAUCModelo@@0@Z:PROC	; InsertarModelo
EXTRN	_RTC_CheckStackVars:PROC
EXTRN	_RTC_InitBase:PROC
EXTRN	_RTC_Shutdown:PROC
EXTRN	__CheckForDebuggerJustMyCode:PROC
EXTRN	__GSHandlerCheck:PROC
EXTRN	__security_check_cookie:PROC
EXTRN	??_7type_info@@6B@:BYTE				; type_info::`vftable'
EXTRN	?__type_info_root_node@@3U__type_info_node@@A:BYTE ; __type_info_root_node
EXTRN	?_pListaModelos@@3PEAXEA:QWORD			; _pListaModelos
EXTRN	__security_cookie:QWORD
;	COMDAT ?_OptionsStorage@?1??__local_stdio_printf_options@@9@4_KA
_BSS	SEGMENT
?_OptionsStorage@?1??__local_stdio_printf_options@@9@4_KA DQ 01H DUP (?) ; `__local_stdio_printf_options'::`2'::_OptionsStorage
_BSS	ENDS
;	COMDAT pdata
pdata	SEGMENT
$pdata$?__empty_global_delete@@YAXPEAX@Z DD imagerel $LN3
	DD	imagerel $LN3+41
	DD	imagerel $unwind$?__empty_global_delete@@YAXPEAX@Z
pdata	ENDS
;	COMDAT pdata
pdata	SEGMENT
$pdata$?__empty_global_delete@@YAXPEAX_K@Z DD imagerel $LN3
	DD	imagerel $LN3+46
	DD	imagerel $unwind$?__empty_global_delete@@YAXPEAX_K@Z
pdata	ENDS
;	COMDAT pdata
pdata	SEGMENT
$pdata$__local_stdio_printf_options DD imagerel $LN3
	DD	imagerel $LN3+44
	DD	imagerel $unwind$__local_stdio_printf_options
pdata	ENDS
;	COMDAT pdata
pdata	SEGMENT
$pdata$_vfprintf_l DD imagerel $LN3
	DD	imagerel $LN3+103
	DD	imagerel $unwind$_vfprintf_l
pdata	ENDS
;	COMDAT pdata
pdata	SEGMENT
$pdata$printf DD imagerel $LN3
	DD	imagerel $LN3+191
	DD	imagerel $unwind$printf
pdata	ENDS
;	COMDAT pdata
pdata	SEGMENT
$pdata$?name@type_info@@QEBAPEBDXZ DD imagerel $LN3
	DD	imagerel $LN3+67
	DD	imagerel $unwind$?name@type_info@@QEBAPEBDXZ
pdata	ENDS
;	COMDAT pdata
pdata	SEGMENT
$pdata$?PersonaDefaultConstructor@@YAPEAUCPersona@@XZ DD imagerel $LN4
	DD	imagerel $LN4+327
	DD	imagerel $unwind$?PersonaDefaultConstructor@@YAPEAUCPersona@@XZ
pdata	ENDS
;	COMDAT pdata
pdata	SEGMENT
$pdata$?PersonaConstructorBebe@@YAPEAUCPersona@@PEAD0@Z DD imagerel $LN4
	DD	imagerel $LN4+124
	DD	imagerel $unwind$?PersonaConstructorBebe@@YAPEAUCPersona@@PEAD0@Z
pdata	ENDS
;	COMDAT pdata
pdata	SEGMENT
$pdata$?PersonaConstructorAdulto@@YAPEAUCPersona@@PEAD00@Z DD imagerel $LN4
	DD	imagerel $LN4+152
	DD	imagerel $unwind$?PersonaConstructorAdulto@@YAPEAUCPersona@@PEAD00@Z
pdata	ENDS
;	COMDAT pdata
pdata	SEGMENT
$pdata$?PersonaDestructor@@YAXPEAUCPersona@@@Z DD imagerel $LN4
	DD	imagerel $LN4+64
	DD	imagerel $unwind$?PersonaDestructor@@YAXPEAUCPersona@@@Z
pdata	ENDS
;	COMDAT pdata
pdata	SEGMENT
$pdata$?_new@@YAPEAXPEAUCPersona@@@Z DD imagerel $LN6
	DD	imagerel $LN6+390
	DD	imagerel $unwind$?_new@@YAPEAXPEAUCPersona@@@Z
pdata	ENDS
;	COMDAT pdata
pdata	SEGMENT
$pdata$?_delete@@YAXPEAUCPersona@@@Z DD imagerel $LN14
	DD	imagerel $LN14+523
	DD	imagerel $unwind$?_delete@@YAXPEAUCPersona@@@Z
pdata	ENDS
;	COMDAT pdata
pdata	SEGMENT
$pdata$?ImprimirFicha@@YAXPEAUCPersona@@@Z DD imagerel $LN3
	DD	imagerel $LN3+349
	DD	imagerel $unwind$?ImprimirFicha@@YAXPEAUCPersona@@@Z
pdata	ENDS
;	COMDAT rtc$TMZ
rtc$TMZ	SEGMENT
_RTC_Shutdown.rtc$TMZ DQ FLAT:_RTC_Shutdown
rtc$TMZ	ENDS
;	COMDAT rtc$IMZ
rtc$IMZ	SEGMENT
_RTC_InitBase.rtc$IMZ DQ FLAT:_RTC_InitBase
rtc$IMZ	ENDS
;	COMDAT ??_C@_0BO@GINHBBBK@Email?4?4?4?4?4?4?4?4?4?4?4?4?4?4?4?4?4?4?4?4?3?$CFs?6@
CONST	SEGMENT
??_C@_0BO@GINHBBBK@Email?4?4?4?4?4?4?4?4?4?4?4?4?4?4?4?4?4?4?4?4?3?$CFs?6@ DB 'E'
	DB	'mail....................:%s', 0aH, 00H	; `string'
CONST	ENDS
;	COMDAT ??_C@_0BO@HCHEFACI@Telefono?52?4?4?4?4?4?4?4?4?4?4?4?4?4?4?4?3?$CFs?6@
CONST	SEGMENT
??_C@_0BO@HCHEFACI@Telefono?52?4?4?4?4?4?4?4?4?4?4?4?4?4?4?4?3?$CFs?6@ DB 'T'
	DB	'elefono 2...............:%s', 0aH, 00H	; `string'
CONST	ENDS
;	COMDAT ??_C@_0BO@JGKNCML@Telefono?51?4?4?4?4?4?4?4?4?4?4?4?4?4?4?4?3?$CFs?6@
CONST	SEGMENT
??_C@_0BO@JGKNCML@Telefono?51?4?4?4?4?4?4?4?4?4?4?4?4?4?4?4?3?$CFs?6@ DB 'T'
	DB	'elefono 1...............:%s', 0aH, 00H	; `string'
CONST	ENDS
;	COMDAT ??_C@_0BO@MEHFFPE@Poblacion?4?4?4?4?4?4?4?4?4?4?4?4?4?4?4?4?3?$CFs?6@
CONST	SEGMENT
??_C@_0BO@MEHFFPE@Poblacion?4?4?4?4?4?4?4?4?4?4?4?4?4?4?4?4?3?$CFs?6@ DB 'P'
	DB	'oblacion................:%s', 0aH, 00H	; `string'
CONST	ENDS
;	COMDAT ??_C@_0BO@JIONGMDC@Cod?4Postal?4?4?4?4?4?4?4?4?4?4?4?4?4?4?4?3?$CFs?6@
CONST	SEGMENT
??_C@_0BO@JIONGMDC@Cod?4Postal?4?4?4?4?4?4?4?4?4?4?4?4?4?4?4?3?$CFs?6@ DB 'C'
	DB	'od.Postal...............:%s', 0aH, 00H	; `string'
CONST	ENDS
;	COMDAT ??_C@_0BO@LOFCGCDL@Direccion?4?4?4?4?4?4?4?4?4?4?4?4?4?4?4?4?3?$CFs?6@
CONST	SEGMENT
??_C@_0BO@LOFCGCDL@Direccion?4?4?4?4?4?4?4?4?4?4?4?4?4?4?4?4?3?$CFs?6@ DB 'D'
	DB	'ireccion................:%s', 0aH, 00H	; `string'
CONST	ENDS
;	COMDAT ??_C@_0BO@NLGOMMOP@Apellidos?4?4?4?4?4?4?4?4?4?4?4?4?4?4?4?4?3?$CFs?6@
CONST	SEGMENT
??_C@_0BO@NLGOMMOP@Apellidos?4?4?4?4?4?4?4?4?4?4?4?4?4?4?4?4?3?$CFs?6@ DB 'A'
	DB	'pellidos................:%s', 0aH, 00H	; `string'
CONST	ENDS
;	COMDAT ??_C@_0BO@MKAPGKPG@Nombre?4?4?4?4?4?4?4?4?4?4?4?4?4?4?4?4?4?4?4?3?$CFs?6@
CONST	SEGMENT
??_C@_0BO@MKAPGKPG@Nombre?4?4?4?4?4?4?4?4?4?4?4?4?4?4?4?4?4?4?4?3?$CFs?6@ DB 'N'
	DB	'ombre...................:%s', 0aH, 00H	; `string'
CONST	ENDS
;	COMDAT ??_C@_0BO@LKKACGMF@CIF?1DNI?1NIE?4?4?4?4?4?4?4?4?4?4?4?4?4?4?3?$CFs?6@
CONST	SEGMENT
??_C@_0BO@LKKACGMF@CIF?1DNI?1NIE?4?4?4?4?4?4?4?4?4?4?4?4?4?4?3?$CFs?6@ DB 'C'
	DB	'IF/DNI/NIE..............:%s', 0aH, 00H	; `string'
CONST	ENDS
;	COMDAT ??_C@_0CC@EEDKFKPA@Direccion?5de?5puntero?5base?3?$CF016z@
CONST	SEGMENT
??_C@_0CC@EEDKFKPA@Direccion?5de?5puntero?5base?3?$CF016z@ DB 'Direccion '
	DB	'de puntero base:%016zx', 0aH, 00H		; `string'
CONST	ENDS
;	COMDAT ??_C@_0BD@JGAJANDI@?9?9?9?9?9?9?9?9?9?9?9?9?9?9?9?9?9?6@
CONST	SEGMENT
??_C@_0BD@JGAJANDI@?9?9?9?9?9?9?9?9?9?9?9?9?9?9?9?9?9?6@ DB '------------'
	DB	'-----', 0aH, 00H				; `string'
CONST	ENDS
;	COMDAT ??_C@_0BD@MIEJKMDA@FICHA?5DE?5PERSONA?3?6@
CONST	SEGMENT
??_C@_0BD@MIEJKMDA@FICHA?5DE?5PERSONA?3?6@ DB 'FICHA DE PERSONA:', 0aH, 00H ; `string'
CONST	ENDS
;	COMDAT ??_C@_01EEMJAFIK@?6@
CONST	SEGMENT
??_C@_01EEMJAFIK@?6@ DB 0aH, 00H			; `string'
CONST	ENDS
;	COMDAT ??_R0?AUCPersona@@@8
data$r	SEGMENT
??_R0?AUCPersona@@@8 DQ FLAT:??_7type_info@@6B@		; CPersona `RTTI Type Descriptor'
	DQ	0000000000000000H
	DB	'.?AUCPersona@@', 00H
data$r	ENDS
;	COMDAT xdata
xdata	SEGMENT
$unwind$?ImprimirFicha@@YAXPEAUCPersona@@@Z DD 025051301H
	DD	010e2313H
	DD	07007001dH
	DD	05006H
xdata	ENDS
;	COMDAT voltbl
voltbl	SEGMENT
_volmd	DW	036H
	DW	01f2H
voltbl	ENDS
;	COMDAT xdata
xdata	SEGMENT
$unwind$?_delete@@YAXPEAUCPersona@@@Z DD 025053d19H
	DD	010e2313H
	DD	070070037H
	DD	05006H
	DD	imagerel __GSHandlerCheck
	DD	01a8H
xdata	ENDS
;	COMDAT CONST
CONST	SEGMENT
?_delete@@YAXPEAUCPersona@@@Z$rtcName$0 DB 073H		; _delete
	DB	07aH
	DB	054H
	DB	079H
	DB	070H
	DB	065H
	DB	049H
	DB	044H
	DB	00H
	ORG $+7
?_delete@@YAXPEAUCPersona@@@Z$rtcVarDesc DD 030H	; _delete
	DD	064H
	DQ	FLAT:?_delete@@YAXPEAUCPersona@@@Z$rtcName$0
	ORG $+48
?_delete@@YAXPEAUCPersona@@@Z$rtcFrameData DD 01H	; _delete
	DD	00H
	DQ	FLAT:?_delete@@YAXPEAUCPersona@@@Z$rtcVarDesc
CONST	ENDS
;	COMDAT voltbl
voltbl	SEGMENT
_volmd	DW	036H
	DW	016dH
voltbl	ENDS
;	COMDAT xdata
xdata	SEGMENT
$unwind$?_new@@YAPEAXPEAUCPersona@@@Z DD 025053d19H
	DD	010e2313H
	DD	07007003bH
	DD	05006H
	DD	imagerel __GSHandlerCheck
	DD	01c8H
xdata	ENDS
;	COMDAT CONST
CONST	SEGMENT
?_new@@YAPEAXPEAUCPersona@@@Z$rtcName$0 DB 073H		; _new
	DB	07aH
	DB	054H
	DB	079H
	DB	070H
	DB	065H
	DB	049H
	DB	044H
	DB	00H
	ORG $+7
?_new@@YAPEAXPEAUCPersona@@@Z$rtcVarDesc DD 070H	; _new
	DD	064H
	DQ	FLAT:?_new@@YAPEAXPEAUCPersona@@@Z$rtcName$0
	ORG $+48
?_new@@YAPEAXPEAUCPersona@@@Z$rtcFrameData DD 01H	; _new
	DD	00H
	DQ	FLAT:?_new@@YAPEAXPEAUCPersona@@@Z$rtcVarDesc
CONST	ENDS
;	COMDAT xdata
xdata	SEGMENT
$unwind$?PersonaDestructor@@YAXPEAUCPersona@@@Z DD 025051301H
	DD	010e2313H
	DD	07007001dH
	DD	05006H
xdata	ENDS
;	COMDAT xdata
xdata	SEGMENT
$unwind$?PersonaConstructorAdulto@@YAPEAUCPersona@@PEAD00@Z DD 025051d01H
	DD	0118231dH
	DD	070110021H
	DD	05010H
xdata	ENDS
;	COMDAT xdata
xdata	SEGMENT
$unwind$?PersonaConstructorBebe@@YAPEAUCPersona@@PEAD0@Z DD 025051801H
	DD	01132318H
	DD	0700c0021H
	DD	0500bH
xdata	ENDS
;	COMDAT voltbl
voltbl	SEGMENT
_volmd	DW	02aH
	DW	012eH
voltbl	ENDS
;	COMDAT xdata
xdata	SEGMENT
$unwind$?PersonaDefaultConstructor@@YAPEAUCPersona@@XZ DD 025053119H
	DD	010a230fH
	DD	07003003fH
	DD	05002H
	DD	imagerel __GSHandlerCheck
	DD	01e8H
xdata	ENDS
;	COMDAT CONST
CONST	SEGMENT
?PersonaDefaultConstructor@@YAPEAUCPersona@@XZ$rtcName$0 DB 073H ; PersonaDefaultConstructor
	DB	07aH
	DB	054H
	DB	079H
	DB	070H
	DB	065H
	DB	049H
	DB	044H
	DB	00H
	ORG $+7
?PersonaDefaultConstructor@@YAPEAUCPersona@@XZ$rtcVarDesc DD 0b0H ; PersonaDefaultConstructor
	DD	064H
	DQ	FLAT:?PersonaDefaultConstructor@@YAPEAUCPersona@@XZ$rtcName$0
	ORG $+48
?PersonaDefaultConstructor@@YAPEAUCPersona@@XZ$rtcFrameData DD 01H ; PersonaDefaultConstructor
	DD	00H
	DQ	FLAT:?PersonaDefaultConstructor@@YAPEAUCPersona@@XZ$rtcVarDesc
CONST	ENDS
;	COMDAT xdata
xdata	SEGMENT
$unwind$?name@type_info@@QEBAPEBDXZ DD 025051301H
	DD	010e2313H
	DD	07007001dH
	DD	05006H
xdata	ENDS
;	COMDAT voltbl
voltbl	SEGMENT
_volmd	DB	045H
	DB	0a6H
voltbl	ENDS
;	COMDAT xdata
xdata	SEGMENT
$unwind$printf DD 025054c19H
	DD	011d2322H
	DD	070160029H
	DD	05015H
	DD	imagerel __GSHandlerCheck
	DD	0138H
xdata	ENDS
;	COMDAT CONST
CONST	SEGMENT
printf$rtcName$0 DB 05fH
	DB	041H
	DB	072H
	DB	067H
	DB	04cH
	DB	069H
	DB	073H
	DB	074H
	DB	00H
	ORG $+7
printf$rtcVarDesc DD 048H
	DD	08H
	DQ	FLAT:printf$rtcName$0
	ORG $+48
printf$rtcFrameData DD 01H
	DD	00H
	DQ	FLAT:printf$rtcVarDesc
CONST	ENDS
;	COMDAT xdata
xdata	SEGMENT
$unwind$_vfprintf_l DD 035052201H
	DD	011d3322H
	DD	07016001fH
	DD	05015H
xdata	ENDS
;	COMDAT xdata
xdata	SEGMENT
$unwind$__local_stdio_printf_options DD 025050f01H
	DD	010a230fH
	DD	07003001dH
	DD	05002H
xdata	ENDS
;	COMDAT xdata
xdata	SEGMENT
$unwind$?__empty_global_delete@@YAXPEAX_K@Z DD 025051801H
	DD	01132318H
	DD	0700c001dH
	DD	0500bH
xdata	ENDS
;	COMDAT xdata
xdata	SEGMENT
$unwind$?__empty_global_delete@@YAXPEAX@Z DD 025051301H
	DD	010e2313H
	DD	07007001dH
	DD	05006H
xdata	ENDS
; Function compile flags: /Odt
;	COMDAT __JustMyCode_Default
_TEXT	SEGMENT
__JustMyCode_Default PROC				; COMDAT
	ret	0
__JustMyCode_Default ENDP
_TEXT	ENDS
; Function compile flags: /Odtp /RTCsu /ZI
; File D:\Develop\Marcombo\MarSalud\MarSalud\Persona.cpp
;	COMDAT ?ImprimirFicha@@YAXPEAUCPersona@@@Z
_TEXT	SEGMENT
pPersona$ = 224
?ImprimirFicha@@YAXPEAUCPersona@@@Z PROC		; ImprimirFicha, COMDAT

; 199  : {

$LN3:
	mov	QWORD PTR [rsp+8], rcx
	push	rbp
	push	rdi
	sub	rsp, 232				; 000000e8H
	lea	rbp, QWORD PTR [rsp+32]
	lea	rcx, OFFSET FLAT:__418B1E85_Persona@cpp
	call	__CheckForDebuggerJustMyCode

; 200  :     printf("\n");

	lea	rcx, OFFSET FLAT:??_C@_01EEMJAFIK@?6@
	call	printf

; 201  :     printf("FICHA DE PERSONA:\n");

	lea	rcx, OFFSET FLAT:??_C@_0BD@MIEJKMDA@FICHA?5DE?5PERSONA?3?6@
	call	printf

; 202  :     printf("-----------------\n");

	lea	rcx, OFFSET FLAT:??_C@_0BD@JGAJANDI@?9?9?9?9?9?9?9?9?9?9?9?9?9?9?9?9?9?6@
	call	printf

; 203  :     printf("Direccion de puntero base:%016zx\n", (unsigned __int64)pPersona->m_this); //64 bits

	mov	rax, QWORD PTR pPersona$[rbp]
	mov	rdx, QWORD PTR [rax]
	lea	rcx, OFFSET FLAT:??_C@_0CC@EEDKFKPA@Direccion?5de?5puntero?5base?3?$CF016z@
	call	printf

; 204  :     printf("CIF/DNI/NIE..............:%s\n", pPersona->m_szNIF);

	mov	rax, QWORD PTR pPersona$[rbp]
	add	rax, 96					; 00000060H
	mov	rdx, rax
	lea	rcx, OFFSET FLAT:??_C@_0BO@LKKACGMF@CIF?1DNI?1NIE?4?4?4?4?4?4?4?4?4?4?4?4?4?4?3?$CFs?6@
	call	printf

; 205  :     printf("Nombre...................:%s\n", pPersona->m_szNombre);

	mov	rax, QWORD PTR pPersona$[rbp]
	add	rax, 196				; 000000c4H
	mov	rdx, rax
	lea	rcx, OFFSET FLAT:??_C@_0BO@MKAPGKPG@Nombre?4?4?4?4?4?4?4?4?4?4?4?4?4?4?4?4?4?4?4?3?$CFs?6@
	call	printf

; 206  :     printf("Apellidos................:%s\n", pPersona->m_szApellidos);

	mov	rax, QWORD PTR pPersona$[rbp]
	add	rax, 256				; 00000100H
	mov	rdx, rax
	lea	rcx, OFFSET FLAT:??_C@_0BO@NLGOMMOP@Apellidos?4?4?4?4?4?4?4?4?4?4?4?4?4?4?4?4?3?$CFs?6@
	call	printf

; 207  :     printf("Direccion................:%s\n", pPersona->m_szDireccion);

	mov	rax, QWORD PTR pPersona$[rbp]
	add	rax, 376				; 00000178H
	mov	rdx, rax
	lea	rcx, OFFSET FLAT:??_C@_0BO@LOFCGCDL@Direccion?4?4?4?4?4?4?4?4?4?4?4?4?4?4?4?4?3?$CFs?6@
	call	printf

; 208  :     printf("Cod.Postal...............:%s\n", pPersona->m_szCodPostal);

	mov	rax, QWORD PTR pPersona$[rbp]
	add	rax, 576				; 00000240H
	mov	rdx, rax
	lea	rcx, OFFSET FLAT:??_C@_0BO@JIONGMDC@Cod?4Postal?4?4?4?4?4?4?4?4?4?4?4?4?4?4?4?3?$CFs?6@
	call	printf

; 209  :     printf("Poblacion................:%s\n", pPersona->m_szPoblacion);

	mov	rax, QWORD PTR pPersona$[rbp]
	add	rax, 586				; 0000024aH
	mov	rdx, rax
	lea	rcx, OFFSET FLAT:??_C@_0BO@MEHFFPE@Poblacion?4?4?4?4?4?4?4?4?4?4?4?4?4?4?4?4?3?$CFs?6@
	call	printf

; 210  :     printf("Telefono 1...............:%s\n", pPersona->m_szTelefono1);

	mov	rax, QWORD PTR pPersona$[rbp]
	add	rax, 746				; 000002eaH
	mov	rdx, rax
	lea	rcx, OFFSET FLAT:??_C@_0BO@JGKNCML@Telefono?51?4?4?4?4?4?4?4?4?4?4?4?4?4?4?4?3?$CFs?6@
	call	printf

; 211  :     printf("Telefono 2...............:%s\n", pPersona->m_szTelefono2);

	mov	rax, QWORD PTR pPersona$[rbp]
	add	rax, 796				; 0000031cH
	mov	rdx, rax
	lea	rcx, OFFSET FLAT:??_C@_0BO@HCHEFACI@Telefono?52?4?4?4?4?4?4?4?4?4?4?4?4?4?4?4?3?$CFs?6@
	call	printf

; 212  :     printf("Email....................:%s\n", pPersona->m_szEmail);

	mov	rax, QWORD PTR pPersona$[rbp]
	add	rax, 846				; 0000034eH
	mov	rdx, rax
	lea	rcx, OFFSET FLAT:??_C@_0BO@GINHBBBK@Email?4?4?4?4?4?4?4?4?4?4?4?4?4?4?4?4?4?4?4?4?3?$CFs?6@
	call	printf

; 213  : }

	lea	rsp, QWORD PTR [rbp+200]
	pop	rdi
	pop	rbp
	ret	0
?ImprimirFicha@@YAXPEAUCPersona@@@Z ENDP		; ImprimirFicha
_TEXT	ENDS
; Function compile flags: /Odtp /RTCsu /ZI
; File D:\Develop\Marcombo\MarSalud\MarSalud\Persona.cpp
;	COMDAT ?_delete@@YAXPEAUCPersona@@@Z
_TEXT	SEGMENT
szTypeID$ = 16
pFoundModelo$ = 152
pPreviousModelo$ = 184
__$ArrayPad$ = 392
pObjeto$ = 432
?_delete@@YAXPEAUCPersona@@@Z PROC			; _delete, COMDAT

; 135  : {

$LN14:
	mov	QWORD PTR [rsp+8], rcx
	push	rbp
	push	rdi
	sub	rsp, 440				; 000001b8H
	lea	rbp, QWORD PTR [rsp+32]
	lea	rdi, QWORD PTR [rsp+32]
	mov	ecx, 54					; 00000036H
	mov	eax, -858993460				; ccccccccH
	rep stosd
	mov	rcx, QWORD PTR [rsp+472]
	mov	rax, QWORD PTR __security_cookie
	xor	rax, rbp
	mov	QWORD PTR __$ArrayPad$[rbp], rax
	lea	rcx, OFFSET FLAT:__418B1E85_Persona@cpp
	call	__CheckForDebuggerJustMyCode

; 136  :     char szTypeID[100];
; 137  :     CModeloPtr pFoundModelo = NULL;

	mov	QWORD PTR pFoundModelo$[rbp], 0

; 138  :     CModeloPtr pPreviousModelo = NULL;

	mov	QWORD PTR pPreviousModelo$[rbp], 0

; 139  : 
; 140  :     // Obtener el tipo del objeto:
; 141  :     memset(szTypeID, 0, sizeof(szTypeID));

	mov	r8d, 100				; 00000064H
	xor	edx, edx
	lea	rcx, QWORD PTR szTypeID$[rbp]
	call	memset

; 142  :     strcpy(szTypeID, typeid(*pObjeto).name());

	lea	rcx, OFFSET FLAT:??_R0?AUCPersona@@@8
	call	?name@type_info@@QEBAPEBDXZ		; type_info::name
	mov	rdx, rax
	lea	rcx, QWORD PTR szTypeID$[rbp]
	call	strcpy

; 143  : 
; 144  :     if (_pListaModelos)

	cmp	QWORD PTR ?_pListaModelos@@3PEAXEA, 0	; _pListaModelos
	je	$LN2@delete

; 145  :     {
; 146  :         pFoundModelo = BuscarModelo((CModeloPtr)_pListaModelos, szTypeID);

	lea	rdx, QWORD PTR szTypeID$[rbp]
	mov	rcx, QWORD PTR ?_pListaModelos@@3PEAXEA	; _pListaModelos
	call	?BuscarModelo@@YAPEAUCModelo@@PEAU1@PEAD@Z ; BuscarModelo
	mov	QWORD PTR pFoundModelo$[rbp], rax

; 147  :         if (pFoundModelo)

	cmp	QWORD PTR pFoundModelo$[rbp], 0
	je	$LN3@delete

; 148  :         {
; 149  :             if (pFoundModelo == pObjeto->m_pModelo)

	mov	rax, QWORD PTR pObjeto$[rbp]
	mov	rax, QWORD PTR [rax+8]
	cmp	QWORD PTR pFoundModelo$[rbp], rax
	jne	$LN4@delete

; 150  :             {
; 151  :                 if (pObjeto->m_pModelo)

	mov	rax, QWORD PTR pObjeto$[rbp]
	cmp	QWORD PTR [rax+8], 0
	je	$LN5@delete

; 152  :                 {
; 153  :                     if (pFoundModelo->m_nContador > 0)

	mov	rax, QWORD PTR pFoundModelo$[rbp]
	cmp	DWORD PTR [rax+100], 0
	jle	SHORT $LN6@delete

; 154  :                     {
; 155  :                         pFoundModelo->m_nContador--;

	mov	rax, QWORD PTR pFoundModelo$[rbp]
	mov	eax, DWORD PTR [rax+100]
	dec	eax
	mov	rcx, QWORD PTR pFoundModelo$[rbp]
	mov	DWORD PTR [rcx+100], eax
$LN6@delete:

; 156  :                     }
; 157  :                     if (pFoundModelo->m_nContador == 0)

	mov	rax, QWORD PTR pFoundModelo$[rbp]
	cmp	DWORD PTR [rax+100], 0
	jne	$LN7@delete

; 158  :                     {
; 159  :                         pObjeto->m_pModelo = NULL; //Borrado en la instancia

	mov	rax, QWORD PTR pObjeto$[rbp]
	mov	QWORD PTR [rax+8], 0

; 160  : 
; 161  :                         //Ahora hay que borrarlo de la lista de modelos:
; 162  :                         //Primero puenteamos a pFoundModelo:
; 163  :                         pPreviousModelo = pFoundModelo->m_pPrev;

	mov	rax, QWORD PTR pFoundModelo$[rbp]
	mov	rax, QWORD PTR [rax+1104]
	mov	QWORD PTR pPreviousModelo$[rbp], rax

; 164  :                         if (pPreviousModelo)

	cmp	QWORD PTR pPreviousModelo$[rbp], 0
	je	SHORT $LN8@delete

; 165  :                         {
; 166  :                             pPreviousModelo->m_pNext = pFoundModelo->m_pNext;

	mov	rax, QWORD PTR pPreviousModelo$[rbp]
	mov	rcx, QWORD PTR pFoundModelo$[rbp]
	mov	rcx, QWORD PTR [rcx+1096]
	mov	QWORD PTR [rax+1096], rcx

; 167  :                         }

	jmp	SHORT $LN9@delete
$LN8@delete:

; 168  :                         else
; 169  :                         {
; 170  :                             // Si no hay modelo anterior, ponemos de primero al siguiente 
; 171  :                             // del que vamos a borrar, es decir, shiftamos a la izquierda la lista
; 172  :                             // (que también puede ser NULL cuando no quede ningún modelo)
; 173  : 
; 174  :                             _pListaModelos = pFoundModelo->m_pNext;

	mov	rax, QWORD PTR pFoundModelo$[rbp]
	mov	rax, QWORD PTR [rax+1096]
	mov	QWORD PTR ?_pListaModelos@@3PEAXEA, rax	; _pListaModelos

; 175  :                             if (_pListaModelos)

	cmp	QWORD PTR ?_pListaModelos@@3PEAXEA, 0	; _pListaModelos
	je	SHORT $LN10@delete

; 176  :                             {
; 177  :                                 ((CModeloPtr)_pListaModelos)->m_pPrev = NULL; //El primero no tiene nunca un anterior

	mov	rax, QWORD PTR ?_pListaModelos@@3PEAXEA	; _pListaModelos
	mov	QWORD PTR [rax+1104], 0
$LN10@delete:
$LN9@delete:

; 178  :                             }
; 179  :                         }
; 180  :                         //Y luego liberamos pFoundModelo:
; 181  :                         free(pFoundModelo);

	mov	rcx, QWORD PTR pFoundModelo$[rbp]
	call	QWORD PTR __imp_free
$LN7@delete:
$LN5@delete:
$LN4@delete:
$LN3@delete:
$LN2@delete:

; 182  :                     }
; 183  :                 }
; 184  :             }
; 185  :         }
; 186  :     }
; 187  :     if (pObjeto->m_lpfnDestructor)

	mov	rax, QWORD PTR pObjeto$[rbp]
	cmp	QWORD PTR [rax+976], 0
	je	SHORT $LN11@delete

; 188  :     {
; 189  :         (pObjeto->m_lpfnDestructor)(pObjeto);

	mov	rcx, QWORD PTR pObjeto$[rbp]
	mov	rax, QWORD PTR pObjeto$[rbp]
	call	QWORD PTR [rax+976]

; 190  :     }

	jmp	SHORT $LN12@delete
$LN11@delete:

; 191  :     else
; 192  :     {
; 193  :         free(pObjeto);

	mov	rcx, QWORD PTR pObjeto$[rbp]
	call	QWORD PTR __imp_free
$LN12@delete:

; 194  :     }
; 195  :     pObjeto = NULL;

	mov	QWORD PTR pObjeto$[rbp], 0

; 196  : }

	lea	rcx, QWORD PTR [rbp-32]
	lea	rdx, OFFSET FLAT:?_delete@@YAXPEAUCPersona@@@Z$rtcFrameData
	call	_RTC_CheckStackVars
	mov	rcx, QWORD PTR __$ArrayPad$[rbp]
	xor	rcx, rbp
	call	__security_check_cookie
	lea	rsp, QWORD PTR [rbp+408]
	pop	rdi
	pop	rbp
	ret	0
?_delete@@YAXPEAUCPersona@@@Z ENDP			; _delete
_TEXT	ENDS
; Function compile flags: /Odtp /RTCsu /ZI
; File D:\Develop\Marcombo\MarSalud\MarSalud\Persona.cpp
;	COMDAT ?_new@@YAPEAXPEAUCPersona@@@Z
_TEXT	SEGMENT
pFoundModelo$ = 8
pNewModelo$ = 40
szTypeID$ = 80
bOK$ = 212
__$ArrayPad$ = 424
pInstancia$ = 464
?_new@@YAPEAXPEAUCPersona@@@Z PROC			; _new, COMDAT

; 89   : {

$LN6:
	mov	QWORD PTR [rsp+8], rcx
	push	rbp
	push	rdi
	sub	rsp, 472				; 000001d8H
	lea	rbp, QWORD PTR [rsp+32]
	lea	rdi, QWORD PTR [rsp+32]
	mov	ecx, 62					; 0000003eH
	mov	eax, -858993460				; ccccccccH
	rep stosd
	mov	rcx, QWORD PTR [rsp+504]
	mov	rax, QWORD PTR __security_cookie
	xor	rax, rbp
	mov	QWORD PTR __$ArrayPad$[rbp], rax
	lea	rcx, OFFSET FLAT:__418B1E85_Persona@cpp
	call	__CheckForDebuggerJustMyCode

; 90   :     CModeloPtr pFoundModelo = NULL;

	mov	QWORD PTR pFoundModelo$[rbp], 0

; 91   :     CModeloPtr pNewModelo = NULL;

	mov	QWORD PTR pNewModelo$[rbp], 0

; 92   :     char szTypeID[100];
; 93   :     bool bOK = false;

	mov	BYTE PTR bOK$[rbp], 0

; 94   : 
; 95   :     memset(szTypeID, 0, sizeof(szTypeID));

	mov	r8d, 100				; 00000064H
	xor	edx, edx
	lea	rcx, QWORD PTR szTypeID$[rbp]
	call	memset

; 96   :     strcpy(szTypeID, typeid(*pInstancia).name());

	lea	rcx, OFFSET FLAT:??_R0?AUCPersona@@@8
	call	?name@type_info@@QEBAPEBDXZ		; type_info::name
	mov	rdx, rax
	lea	rcx, QWORD PTR szTypeID$[rbp]
	call	strcpy

; 97   : 
; 98   :     if (pInstancia)

	cmp	QWORD PTR pInstancia$[rbp], 0
	je	$LN2@new

; 99   :     {
; 100  :         pFoundModelo = BuscarModelo((CModeloPtr)_pListaModelos, szTypeID); //Puntero de la instancia hacia el modelo

	lea	rdx, QWORD PTR szTypeID$[rbp]
	mov	rcx, QWORD PTR ?_pListaModelos@@3PEAXEA	; _pListaModelos
	call	?BuscarModelo@@YAPEAUCModelo@@PEAU1@PEAD@Z ; BuscarModelo
	mov	QWORD PTR pFoundModelo$[rbp], rax

; 101  :         if (pFoundModelo)

	cmp	QWORD PTR pFoundModelo$[rbp], 0
	je	SHORT $LN3@new

; 102  :         {
; 103  :             //Vincular la instancia con el modelo:
; 104  :             pInstancia->m_pModelo = pFoundModelo;

	mov	rax, QWORD PTR pInstancia$[rbp]
	mov	rcx, QWORD PTR pFoundModelo$[rbp]
	mov	QWORD PTR [rax+8], rcx

; 105  : 
; 106  :             //Incrementar el contador de instancias del modelo
; 107  :             pFoundModelo->m_nContador++; 

	mov	rax, QWORD PTR pFoundModelo$[rbp]
	mov	eax, DWORD PTR [rax+100]
	inc	eax
	mov	rcx, QWORD PTR pFoundModelo$[rbp]
	mov	DWORD PTR [rcx+100], eax

; 108  :         }

	jmp	SHORT $LN4@new
$LN3@new:

; 109  :         else
; 110  :         {
; 111  :             //Crear dinámicamente el modelo:
; 112  :             pNewModelo = (CModeloPtr)malloc(sizeof(CModelo));

	mov	ecx, 1112				; 00000458H
	call	QWORD PTR __imp_malloc
	mov	QWORD PTR pNewModelo$[rbp], rax

; 113  : 
; 114  :             //Poner a cero el modelo:
; 115  :             memset(pNewModelo, 0, sizeof(CModelo));

	mov	r8d, 1112				; 00000458H
	xor	edx, edx
	mov	rcx, QWORD PTR pNewModelo$[rbp]
	call	memset

; 116  :             memcpy(&pNewModelo->m_persona, pInstancia, sizeof(CPersona));

	mov	rax, QWORD PTR pNewModelo$[rbp]
	add	rax, 104				; 00000068H
	mov	r8d, 992				; 000003e0H
	mov	rdx, QWORD PTR pInstancia$[rbp]
	mov	rcx, rax
	call	memcpy

; 117  : 
; 118  :             //Vincular la instancia con el modelo:
; 119  :             pInstancia->m_pModelo = pNewModelo;

	mov	rax, QWORD PTR pInstancia$[rbp]
	mov	rcx, QWORD PTR pNewModelo$[rbp]
	mov	QWORD PTR [rax+8], rcx

; 120  : 
; 121  :             //Copiar el nombre del modelo a partir del typeid
; 122  :             strcpy(pNewModelo->m_szRuntimeClassName, szTypeID);

	mov	rax, QWORD PTR pNewModelo$[rbp]
	lea	rdx, QWORD PTR szTypeID$[rbp]
	mov	rcx, rax
	call	strcpy

; 123  : 
; 124  :             //Inicializar el contador de instancias de este modelo a 1
; 125  :             pNewModelo->m_nContador = 1;  

	mov	rax, QWORD PTR pNewModelo$[rbp]
	mov	DWORD PTR [rax+100], 1

; 126  : 
; 127  :             bOK = InsertarModelo((CModeloPtr)_pListaModelos, pNewModelo);

	mov	rdx, QWORD PTR pNewModelo$[rbp]
	mov	rcx, QWORD PTR ?_pListaModelos@@3PEAXEA	; _pListaModelos
	call	?InsertarModelo@@YA_NPEAUCModelo@@0@Z	; InsertarModelo
	mov	BYTE PTR bOK$[rbp], al
$LN4@new:
$LN2@new:

; 128  :         }
; 129  :     }
; 130  :     return pInstancia;

	mov	rax, QWORD PTR pInstancia$[rbp]

; 131  : }

	mov	rdi, rax
	lea	rcx, QWORD PTR [rbp-32]
	lea	rdx, OFFSET FLAT:?_new@@YAPEAXPEAUCPersona@@@Z$rtcFrameData
	call	_RTC_CheckStackVars
	mov	rax, rdi
	mov	rcx, QWORD PTR __$ArrayPad$[rbp]
	xor	rcx, rbp
	call	__security_check_cookie
	lea	rsp, QWORD PTR [rbp+440]
	pop	rdi
	pop	rbp
	ret	0
?_new@@YAPEAXPEAUCPersona@@@Z ENDP			; _new
_TEXT	ENDS
; Function compile flags: /Odtp /RTCsu /ZI
; File D:\Develop\Marcombo\MarSalud\MarSalud\Persona.cpp
;	COMDAT ?PersonaDestructor@@YAXPEAUCPersona@@@Z
_TEXT	SEGMENT
pObjeto$ = 224
?PersonaDestructor@@YAXPEAUCPersona@@@Z PROC		; PersonaDestructor, COMDAT

; 76   : {

$LN4:
	mov	QWORD PTR [rsp+8], rcx
	push	rbp
	push	rdi
	sub	rsp, 232				; 000000e8H
	lea	rbp, QWORD PTR [rsp+32]
	lea	rcx, OFFSET FLAT:__418B1E85_Persona@cpp
	call	__CheckForDebuggerJustMyCode

; 77   :     // Otras tareas de liberación y restauración
; 78   :     // de recursos...
; 79   : 
; 80   :     //Destruir el propio objeto
; 81   :     if (pObjeto)

	cmp	QWORD PTR pObjeto$[rbp], 0
	je	SHORT $LN2@PersonaDes

; 82   :     {
; 83   :         free(pObjeto);

	mov	rcx, QWORD PTR pObjeto$[rbp]
	call	QWORD PTR __imp_free
$LN2@PersonaDes:

; 84   :     }
; 85   : }

	lea	rsp, QWORD PTR [rbp+200]
	pop	rdi
	pop	rbp
	ret	0
?PersonaDestructor@@YAXPEAUCPersona@@@Z ENDP		; PersonaDestructor
_TEXT	ENDS
; Function compile flags: /Odtp /RTCsu /ZI
; File D:\Develop\Marcombo\MarSalud\MarSalud\Persona.cpp
;	COMDAT ?PersonaConstructorAdulto@@YAPEAUCPersona@@PEAD00@Z
_TEXT	SEGMENT
pNuevaInstancia$ = 8
lpszNIF$ = 256
lpszNombre$ = 264
lpszApellidos$ = 272
?PersonaConstructorAdulto@@YAPEAUCPersona@@PEAD00@Z PROC ; PersonaConstructorAdulto, COMDAT

; 59   : {

$LN4:
	mov	QWORD PTR [rsp+24], r8
	mov	QWORD PTR [rsp+16], rdx
	mov	QWORD PTR [rsp+8], rcx
	push	rbp
	push	rdi
	sub	rsp, 264				; 00000108H
	lea	rbp, QWORD PTR [rsp+32]
	lea	rcx, OFFSET FLAT:__418B1E85_Persona@cpp
	call	__CheckForDebuggerJustMyCode

; 60   :     CPersonaPtr pNuevaInstancia = NULL;

	mov	QWORD PTR pNuevaInstancia$[rbp], 0

; 61   : 
; 62   :     //Llamar al constructor por defecto:
; 63   :     pNuevaInstancia = PersonaDefaultConstructor();

	call	?PersonaDefaultConstructor@@YAPEAUCPersona@@XZ ; PersonaDefaultConstructor
	mov	QWORD PTR pNuevaInstancia$[rbp], rax

; 64   :     if (pNuevaInstancia)

	cmp	QWORD PTR pNuevaInstancia$[rbp], 0
	je	SHORT $LN2@PersonaCon

; 65   :     {
; 66   :         //Cargar valores de NIF, nombre y apellidos:
; 67   :         strcpy(pNuevaInstancia->m_szNIF, lpszNIF);

	mov	rax, QWORD PTR pNuevaInstancia$[rbp]
	add	rax, 96					; 00000060H
	mov	rdx, QWORD PTR lpszNIF$[rbp]
	mov	rcx, rax
	call	strcpy

; 68   :         strcpy(pNuevaInstancia->m_szNombre, lpszNombre);

	mov	rax, QWORD PTR pNuevaInstancia$[rbp]
	add	rax, 196				; 000000c4H
	mov	rdx, QWORD PTR lpszNombre$[rbp]
	mov	rcx, rax
	call	strcpy

; 69   :         strcpy(pNuevaInstancia->m_szApellidos, lpszApellidos);

	mov	rax, QWORD PTR pNuevaInstancia$[rbp]
	add	rax, 256				; 00000100H
	mov	rdx, QWORD PTR lpszApellidos$[rbp]
	mov	rcx, rax
	call	strcpy
$LN2@PersonaCon:

; 70   :     }
; 71   :     return pNuevaInstancia;

	mov	rax, QWORD PTR pNuevaInstancia$[rbp]

; 72   : }

	lea	rsp, QWORD PTR [rbp+232]
	pop	rdi
	pop	rbp
	ret	0
?PersonaConstructorAdulto@@YAPEAUCPersona@@PEAD00@Z ENDP ; PersonaConstructorAdulto
_TEXT	ENDS
; Function compile flags: /Odtp /RTCsu /ZI
; File D:\Develop\Marcombo\MarSalud\MarSalud\Persona.cpp
;	COMDAT ?PersonaConstructorBebe@@YAPEAUCPersona@@PEAD0@Z
_TEXT	SEGMENT
pNuevaInstancia$ = 8
lpszNombre$ = 256
lpszApellidos$ = 264
?PersonaConstructorBebe@@YAPEAUCPersona@@PEAD0@Z PROC	; PersonaConstructorBebe, COMDAT

; 42   : {

$LN4:
	mov	QWORD PTR [rsp+16], rdx
	mov	QWORD PTR [rsp+8], rcx
	push	rbp
	push	rdi
	sub	rsp, 264				; 00000108H
	lea	rbp, QWORD PTR [rsp+32]
	lea	rcx, OFFSET FLAT:__418B1E85_Persona@cpp
	call	__CheckForDebuggerJustMyCode

; 43   :     CPersonaPtr pNuevaInstancia = NULL;

	mov	QWORD PTR pNuevaInstancia$[rbp], 0

; 44   : 
; 45   :     //Llamar al constructor por defecto:
; 46   :     pNuevaInstancia = PersonaDefaultConstructor();

	call	?PersonaDefaultConstructor@@YAPEAUCPersona@@XZ ; PersonaDefaultConstructor
	mov	QWORD PTR pNuevaInstancia$[rbp], rax

; 47   :     if (pNuevaInstancia)

	cmp	QWORD PTR pNuevaInstancia$[rbp], 0
	je	SHORT $LN2@PersonaCon

; 48   :     {
; 49   :         //Cargar valores de nombre y apellidos:
; 50   :         strcpy(pNuevaInstancia->m_szNombre, lpszNombre);

	mov	rax, QWORD PTR pNuevaInstancia$[rbp]
	add	rax, 196				; 000000c4H
	mov	rdx, QWORD PTR lpszNombre$[rbp]
	mov	rcx, rax
	call	strcpy

; 51   :         strcpy(pNuevaInstancia->m_szApellidos, lpszApellidos);

	mov	rax, QWORD PTR pNuevaInstancia$[rbp]
	add	rax, 256				; 00000100H
	mov	rdx, QWORD PTR lpszApellidos$[rbp]
	mov	rcx, rax
	call	strcpy
$LN2@PersonaCon:

; 52   :     }
; 53   :     return pNuevaInstancia;

	mov	rax, QWORD PTR pNuevaInstancia$[rbp]

; 54   : }

	lea	rsp, QWORD PTR [rbp+232]
	pop	rdi
	pop	rbp
	ret	0
?PersonaConstructorBebe@@YAPEAUCPersona@@PEAD0@Z ENDP	; PersonaConstructorBebe
_TEXT	ENDS
; Function compile flags: /Odtp /RTCsu /ZI
; File D:\Develop\Marcombo\MarSalud\MarSalud\Persona.cpp
;	COMDAT ?PersonaDefaultConstructor@@YAPEAUCPersona@@XZ
_TEXT	SEGMENT
pNuevaInstancia$ = 8
pNewModelo$ = 40
pFoundModelo$ = 72
pLastModelo$ = 104
szTypeID$ = 144
__$ArrayPad$ = 456
?PersonaDefaultConstructor@@YAPEAUCPersona@@XZ PROC	; PersonaDefaultConstructor, COMDAT

; 9    : {

$LN4:
	push	rbp
	push	rdi
	sub	rsp, 504				; 000001f8H
	lea	rbp, QWORD PTR [rsp+32]
	lea	rdi, QWORD PTR [rsp+32]
	mov	ecx, 70					; 00000046H
	mov	eax, -858993460				; ccccccccH
	rep stosd
	mov	rax, QWORD PTR __security_cookie
	xor	rax, rbp
	mov	QWORD PTR __$ArrayPad$[rbp], rax
	lea	rcx, OFFSET FLAT:__418B1E85_Persona@cpp
	call	__CheckForDebuggerJustMyCode

; 10   :     CPersonaPtr pNuevaInstancia;
; 11   :     CModelo* pNewModelo = NULL;

	mov	QWORD PTR pNewModelo$[rbp], 0

; 12   :     CModelo* pFoundModelo = NULL;

	mov	QWORD PTR pFoundModelo$[rbp], 0

; 13   :     CModelo* pLastModelo = NULL;

	mov	QWORD PTR pLastModelo$[rbp], 0

; 14   :     char szTypeID[100];
; 15   : 
; 16   :     // Dar de alta la instancia:
; 17   :     pNuevaInstancia = (CPersonaPtr)malloc(sizeof(CPersona));

	mov	ecx, 992				; 000003e0H
	call	QWORD PTR __imp_malloc
	mov	QWORD PTR pNuevaInstancia$[rbp], rax

; 18   :     if (pNuevaInstancia)

	cmp	QWORD PTR pNuevaInstancia$[rbp], 0
	je	$LN2@PersonaDef

; 19   :     {
; 20   :         // Obtener el tipo del objeto:
; 21   :         memset(szTypeID, 0, sizeof(szTypeID));

	mov	r8d, 100				; 00000064H
	xor	edx, edx
	lea	rcx, QWORD PTR szTypeID$[rbp]
	call	memset

; 22   :         strcpy(szTypeID, typeid(*pNuevaInstancia).name());

	lea	rcx, OFFSET FLAT:??_R0?AUCPersona@@@8
	call	?name@type_info@@QEBAPEBDXZ		; type_info::name
	mov	rdx, rax
	lea	rcx, QWORD PTR szTypeID$[rbp]
	call	strcpy

; 23   : 
; 24   :         // Poner a cero todo el objeto:
; 25   :         memset(pNuevaInstancia, 0, sizeof(CPersona));

	mov	r8d, 992				; 000003e0H
	xor	edx, edx
	mov	rcx, QWORD PTR pNuevaInstancia$[rbp]
	call	memset

; 26   : 
; 27   :         //Apuntarse a sí mismo:
; 28   :         pNuevaInstancia->m_this = pNuevaInstancia;

	mov	rax, QWORD PTR pNuevaInstancia$[rbp]
	mov	rcx, QWORD PTR pNuevaInstancia$[rbp]
	mov	QWORD PTR [rax], rcx

; 29   : 
; 30   :         //Obtener punteros a función:
; 31   :         pNuevaInstancia->m_lpfnPersonaDefaultConstructor = PersonaDefaultConstructor;

	mov	rax, QWORD PTR pNuevaInstancia$[rbp]
	lea	rcx, OFFSET FLAT:?PersonaDefaultConstructor@@YAPEAUCPersona@@XZ ; PersonaDefaultConstructor
	mov	QWORD PTR [rax+952], rcx

; 32   :         pNuevaInstancia->m_lpfnPersonaConstructorBebe = PersonaConstructorBebe;

	mov	rax, QWORD PTR pNuevaInstancia$[rbp]
	lea	rcx, OFFSET FLAT:?PersonaConstructorBebe@@YAPEAUCPersona@@PEAD0@Z ; PersonaConstructorBebe
	mov	QWORD PTR [rax+960], rcx

; 33   :         pNuevaInstancia->m_lpfnPersonaConstructorAdulto = PersonaConstructorAdulto;

	mov	rax, QWORD PTR pNuevaInstancia$[rbp]
	lea	rcx, OFFSET FLAT:?PersonaConstructorAdulto@@YAPEAUCPersona@@PEAD00@Z ; PersonaConstructorAdulto
	mov	QWORD PTR [rax+968], rcx

; 34   :         pNuevaInstancia->m_lpfnDestructor = PersonaDestructor;

	mov	rax, QWORD PTR pNuevaInstancia$[rbp]
	lea	rcx, OFFSET FLAT:?PersonaDestructor@@YAXPEAUCPersona@@@Z ; PersonaDestructor
	mov	QWORD PTR [rax+976], rcx

; 35   :         pNuevaInstancia->m_lpfnImprimirFicha = ImprimirFicha;

	mov	rax, QWORD PTR pNuevaInstancia$[rbp]
	lea	rcx, OFFSET FLAT:?ImprimirFicha@@YAXPEAUCPersona@@@Z ; ImprimirFicha
	mov	QWORD PTR [rax+984], rcx
$LN2@PersonaDef:

; 36   :     }
; 37   :     return pNuevaInstancia;

	mov	rax, QWORD PTR pNuevaInstancia$[rbp]

; 38   : }

	mov	rdi, rax
	lea	rcx, QWORD PTR [rbp-32]
	lea	rdx, OFFSET FLAT:?PersonaDefaultConstructor@@YAPEAUCPersona@@XZ$rtcFrameData
	call	_RTC_CheckStackVars
	mov	rax, rdi
	mov	rcx, QWORD PTR __$ArrayPad$[rbp]
	xor	rcx, rbp
	call	__security_check_cookie
	lea	rsp, QWORD PTR [rbp+472]
	pop	rdi
	pop	rbp
	ret	0
?PersonaDefaultConstructor@@YAPEAUCPersona@@XZ ENDP	; PersonaDefaultConstructor
_TEXT	ENDS
; Function compile flags: /Odtp /RTCsu /ZI
; File C:\Program Files\Microsoft Visual Studio\2022\Community\VC\Tools\MSVC\14.37.32822\include\vcruntime_typeinfo.h
;	COMDAT ?name@type_info@@QEBAPEBDXZ
_TEXT	SEGMENT
this$ = 224
?name@type_info@@QEBAPEBDXZ PROC			; type_info::name, COMDAT

; 114  :     {

$LN3:
	mov	QWORD PTR [rsp+8], rcx
	push	rbp
	push	rdi
	sub	rsp, 232				; 000000e8H
	lea	rbp, QWORD PTR [rsp+32]
	lea	rcx, OFFSET FLAT:__0632977E_vcruntime_typeinfo@h
	call	__CheckForDebuggerJustMyCode

; 115  :         #ifdef _M_CEE_PURE
; 116  :         return __std_type_info_name(&_Data, static_cast<__type_info_node*>(__type_info_root_node.ToPointer()));
; 117  :         #else
; 118  :         return __std_type_info_name(&_Data, &__type_info_root_node);

	mov	rax, QWORD PTR this$[rbp]
	add	rax, 8
	lea	rdx, OFFSET FLAT:?__type_info_root_node@@3U__type_info_node@@A ; __type_info_root_node
	mov	rcx, rax
	call	__std_type_info_name

; 119  :         #endif
; 120  :     }

	lea	rsp, QWORD PTR [rbp+200]
	pop	rdi
	pop	rbp
	ret	0
?name@type_info@@QEBAPEBDXZ ENDP			; type_info::name
_TEXT	ENDS
; Function compile flags: /Odtp /RTCsu /ZI
; File C:\Program Files (x86)\Windows Kits\10\Include\10.0.22621.0\ucrt\stdio.h
;	COMDAT printf
_TEXT	SEGMENT
_Result$ = 4
_ArgList$ = 40
__$ArrayPad$ = 280
_Format$ = 320
printf	PROC						; COMDAT

; 956  :     {

$LN3:
	mov	QWORD PTR [rsp+8], rcx
	mov	QWORD PTR [rsp+16], rdx
	mov	QWORD PTR [rsp+24], r8
	mov	QWORD PTR [rsp+32], r9
	push	rbp
	push	rdi
	sub	rsp, 328				; 00000148H
	lea	rbp, QWORD PTR [rsp+32]
	lea	rdi, QWORD PTR [rsp+32]
	mov	ecx, 26
	mov	eax, -858993460				; ccccccccH
	rep stosd
	mov	rcx, QWORD PTR [rsp+360]
	mov	rax, QWORD PTR __security_cookie
	xor	rax, rbp
	mov	QWORD PTR __$ArrayPad$[rbp], rax
	lea	rcx, OFFSET FLAT:__C1EC35D3_stdio@h
	call	__CheckForDebuggerJustMyCode

; 957  :         int _Result;
; 958  :         va_list _ArgList;
; 959  :         __crt_va_start(_ArgList, _Format);

	lea	rax, QWORD PTR _Format$[rbp+8]
	mov	QWORD PTR _ArgList$[rbp], rax

; 960  :         _Result = _vfprintf_l(stdout, _Format, NULL, _ArgList);

	mov	ecx, 1
	call	QWORD PTR __imp___acrt_iob_func
	mov	r9, QWORD PTR _ArgList$[rbp]
	xor	r8d, r8d
	mov	rdx, QWORD PTR _Format$[rbp]
	mov	rcx, rax
	call	_vfprintf_l
	mov	DWORD PTR _Result$[rbp], eax

; 961  :         __crt_va_end(_ArgList);

	mov	QWORD PTR _ArgList$[rbp], 0

; 962  :         return _Result;

	mov	eax, DWORD PTR _Result$[rbp]

; 963  :     }

	mov	edi, eax
	lea	rcx, QWORD PTR [rbp-32]
	lea	rdx, OFFSET FLAT:printf$rtcFrameData
	call	_RTC_CheckStackVars
	mov	eax, edi
	mov	rcx, QWORD PTR __$ArrayPad$[rbp]
	xor	rcx, rbp
	call	__security_check_cookie
	lea	rsp, QWORD PTR [rbp+296]
	pop	rdi
	pop	rbp
	ret	0
printf	ENDP
_TEXT	ENDS
; Function compile flags: /Odtp /RTCsu /ZI
; File C:\Program Files (x86)\Windows Kits\10\Include\10.0.22621.0\ucrt\stdio.h
;	COMDAT _vfprintf_l
_TEXT	SEGMENT
_Stream$ = 224
_Format$ = 232
_Locale$ = 240
_ArgList$ = 248
_vfprintf_l PROC					; COMDAT

; 644  :     {

$LN3:
	mov	QWORD PTR [rsp+32], r9
	mov	QWORD PTR [rsp+24], r8
	mov	QWORD PTR [rsp+16], rdx
	mov	QWORD PTR [rsp+8], rcx
	push	rbp
	push	rdi
	sub	rsp, 248				; 000000f8H
	lea	rbp, QWORD PTR [rsp+48]
	lea	rcx, OFFSET FLAT:__C1EC35D3_stdio@h
	call	__CheckForDebuggerJustMyCode

; 645  :         return __stdio_common_vfprintf(_CRT_INTERNAL_LOCAL_PRINTF_OPTIONS, _Stream, _Format, _Locale, _ArgList);

	call	__local_stdio_printf_options
	mov	rcx, QWORD PTR _ArgList$[rbp]
	mov	QWORD PTR [rsp+32], rcx
	mov	r9, QWORD PTR _Locale$[rbp]
	mov	r8, QWORD PTR _Format$[rbp]
	mov	rdx, QWORD PTR _Stream$[rbp]
	mov	rcx, QWORD PTR [rax]
	call	QWORD PTR __imp___stdio_common_vfprintf

; 646  :     }

	lea	rsp, QWORD PTR [rbp+200]
	pop	rdi
	pop	rbp
	ret	0
_vfprintf_l ENDP
_TEXT	ENDS
; Function compile flags: /Odtp /RTCsu /ZI
; File C:\Program Files (x86)\Windows Kits\10\Include\10.0.22621.0\ucrt\corecrt_stdio_config.h
;	COMDAT __local_stdio_printf_options
_TEXT	SEGMENT
__local_stdio_printf_options PROC			; COMDAT

; 90   :     {

$LN3:
	push	rbp
	push	rdi
	sub	rsp, 232				; 000000e8H
	lea	rbp, QWORD PTR [rsp+32]
	lea	rcx, OFFSET FLAT:__44420885_corecrt_stdio_config@h
	call	__CheckForDebuggerJustMyCode

; 91   :         static unsigned __int64 _OptionsStorage;
; 92   :         return &_OptionsStorage;

	lea	rax, OFFSET FLAT:?_OptionsStorage@?1??__local_stdio_printf_options@@9@4_KA ; `__local_stdio_printf_options'::`2'::_OptionsStorage

; 93   :     }

	lea	rsp, QWORD PTR [rbp+200]
	pop	rdi
	pop	rbp
	ret	0
__local_stdio_printf_options ENDP
_TEXT	ENDS
; Function compile flags: /Odtp /RTCsu /ZI
; File D:\Develop\Marcombo\MarSalud\MarSalud\Persona.cpp
;	COMDAT ?__empty_global_delete@@YAXPEAX_K@Z
_TEXT	SEGMENT
__formal$ = 224
__formal$ = 232
?__empty_global_delete@@YAXPEAX_K@Z PROC		; __empty_global_delete, COMDAT

$LN3:
	mov	QWORD PTR [rsp+16], rdx
	mov	QWORD PTR [rsp+8], rcx
	push	rbp
	push	rdi
	sub	rsp, 232				; 000000e8H
	lea	rbp, QWORD PTR [rsp+32]
	lea	rcx, OFFSET FLAT:__418B1E85_Persona@cpp
	call	__CheckForDebuggerJustMyCode
	lea	rsp, QWORD PTR [rbp+200]
	pop	rdi
	pop	rbp
	ret	0
?__empty_global_delete@@YAXPEAX_K@Z ENDP		; __empty_global_delete
_TEXT	ENDS
; Function compile flags: /Odtp /RTCsu /ZI
; File D:\Develop\Marcombo\MarSalud\MarSalud\Persona.cpp
;	COMDAT ?__empty_global_delete@@YAXPEAX@Z
_TEXT	SEGMENT
__formal$ = 224
?__empty_global_delete@@YAXPEAX@Z PROC			; __empty_global_delete, COMDAT

$LN3:
	mov	QWORD PTR [rsp+8], rcx
	push	rbp
	push	rdi
	sub	rsp, 232				; 000000e8H
	lea	rbp, QWORD PTR [rsp+32]
	lea	rcx, OFFSET FLAT:__418B1E85_Persona@cpp
	call	__CheckForDebuggerJustMyCode
	lea	rsp, QWORD PTR [rbp+200]
	pop	rdi
	pop	rbp
	ret	0
?__empty_global_delete@@YAXPEAX@Z ENDP			; __empty_global_delete
_TEXT	ENDS
END
